DUNFIELD CFLEA ASSEMBLER: DEMO                                         PAGE: 1

0000                         1  *#cpu CFLEA
0000                         2  *
0000                         3  * DDS MICRO-C C-FLEA Runtime Library - Prefix file
0000                         4  *
0000                         5  * Copyright 1991-2005 Dave Dunfield
0000                         6  * All rights reserved.
0000                         7  *
1000                         8  	ORG	$1000		Place code in memory here
1000                         9  * Begin execution here... Setup stack, zero heap & call main()
1000  00 00 10              10  	LD	#*		Stack below here
1003  DE                    11  	TAS			Set up stack
1004  E0                    12  	CLR			Get zero
1005  A9 62 04              13  	STB	?heap		Zero heap
1008  D8 1F 11              14  	CALL	main		Run main program
100B                        15  * Most embedded programs will never return or exit, however if they
100B                        16  * do, this section of code should do something appropriate, either
100B                        17  * restart the program, or stop the machine. For this system, we will
100B                        18  * simply freeze by entering an infinite loop.
100B  D3 FE                 19  exit	SJMP	*		Loop forever
100D                        20  *50000 22/5/2026
100D                        21  wait_ms EQU *
100D  EA 11                 22  		OUT $11			* clear timer
100F                        23  wait_ms_top
100F  EB 11                 24  		IN $11			* read timer
1011  84 02                 25  		CMP 2,S			* compare to ms 
1013  D1 0F 10              26  		JZ wait_ms_top  * wait till ms passes
1016  D9                    27   RET
1017                        28  wait_xms EQU *
1017                        29  ?AB1 EQU *
1017  04 02                 30   LD 2,S
1019  D1 43 10              31   JZ ?AB2
101C  04 02                 32   LD 2,S
101E  88 FF                 33   CMPB #255
1020  CE                    34   UGT
1021  D1 35 10              35   JZ ?AB3
1024  08 FF                 36   LDB #255
1026  DC                    37   PUSHA
1027  D8 0D 10              38   CALL wait_ms
102A  DB 02                 39   FREE 2
102C  04 02                 40   LD 2,S
102E  28 FF                 41   SUBB #255
1030  A4 02                 42   ST 2,S
1032  D0 40 10              43   JMP ?AB4
1035                        44  ?AB3 EQU *
1035  04 02                 45   LD 2,S
1037  DC                    46   PUSHA
1038  D8 0D 10              47   CALL wait_ms
103B  DB 02                 48   FREE 2
103D  D0 43 10              49   JMP ?AB5
1040                        50  ?AB4 EQU *
1040  D0 17 10              51   JMP ?AB1
1043                        52  ?AB2 EQU *
1043                        53  ?AB5 EQU *
1043  D9                    54   RET
1044                        55  vid_mode EQU *
1044  04 02                 56  		LD 2,S
1046  EA 12                 57  		OUT $12
1048  D9                    58   RET
DUNFIELD CFLEA ASSEMBLER: DEMO                                         PAGE: 2

1049                        59  read_video_stat EQU *
1049  EB 12                 60  		IN $12
104B  D9                    61   RET
104C                        62  wait_vsync EQU *
104C                        63  wait_vsync_top
104C  EB 12                 64  		IN $12
104E  58 02                 65  		ANDB #2
1050  D2 4C 10              66  		JNZ wait_vsync_top
1053  D9                    67   RET
1054                        68  wait_nvsync EQU *
1054                        69  wait_nvsync_top
1054  EB 12                 70  		IN $12
1056  58 02                 71  		ANDB #2
1058  D1 4C 10              72  		JZ wait_vsync_top
105B  D9                    73   RET
105C                        74  wait_hsync EQU *
105C                        75  wait_hsync_top
105C  EB 12                 76  		IN $12
105E  58 04                 77  		ANDB #4
1060  D2 4C 10              78  		JNZ wait_vsync_top
1063  D9                    79   RET
1064                        80  wait_active_vid EQU *
1064                        81  wait_active_top
1064  EB 12                 82  		IN $12
1066  58 08                 83  		ANDB #8
1068  D1 64 10              84  		JZ wait_active_top
106B  D9                    85   RET
106C                        86  clrscr EQU *
106C  00 00 F8              87   LD #-2048
106F  DC                    88   PUSHA
1070  E0                    89   CLR
1071  DC                    90   PUSHA
1072  00 00 08              91   LD #2048
1075  DC                    92   PUSHA
1076  D8 5C 1A              93   CALL memset
1079  DB 06                 94   FREE 6
107B  D9                    95   RET
107C  DA 02                 96  putsxy ALLOC 2
107E  04 04                 97   LD 4,S
1080  38 50                 98   MULB #80
1082  10 00 F8              99   ADD #-2048
1085  14 06                100   ADD 6,S
1087  A4 00                101   ST 0,S
1089  DC                   102   PUSHA
108A  04 0A                103   LD 10,S
108C  DC                   104   PUSHA
108D  D8 90 1A             105   CALL strcpy
1090  DB 06                106   FREE 4+2
1092  D9                   107   RET
1093                       108  putscentered EQU *
1093  04 04                109   LD 4,S
1095  DC                   110   PUSHA
1096  04 06                111   LD 6,S
1098  DC                   112   PUSHA
1099  D8 A1 1A             113   CALL strlen
109C  DB 02                114   FREE 2
109E  B8 01                115   SHR #1
10A0  A1 00 00             116   ST ?temp
DUNFIELD CFLEA ASSEMBLER: DEMO                                         PAGE: 3

10A3  08 28                117   LDB #40
10A5  21 00 00             118   SUB ?temp
10A8  DC                   119   PUSHA
10A9  04 06                120   LD 6,S
10AB  DC                   121   PUSHA
10AC  D8 7C 10             122   CALL putsxy
10AF  DB 06                123   FREE 6
10B1  D9                   124   RET
10B2  DA 02                125  hline ALLOC 2
10B4  04 06                126   LD 6,S
10B6  38 30                127   MULB #48
10B8  10 00 F8             128   ADD #-2048
10BB  14 08                129   ADD 8,S
10BD  A4 00                130   ST 0,S
10BF                       131  ?AB6 EQU *
10BF  04 08                132   LD 8,S
10C1  E4                   133   INC
10C2  A4 08                134   ST 8,S
10C4  E5                   135   DEC
10C5  84 04                136   CMP 4,S
10C7  CD                   137   ULE
10C8  D1 D7 10             138   JZ ?AB7
10CB  04 00                139   LD 0,S
10CD  E6                   140   TAI ;
10CE  E4                   141   INC
10CF  A4 00                142   ST 0,S
10D1  0C 0A                143   LDB 10,S
10D3  AA                   144   STB I
10D4  D0 BF 10             145   JMP ?AB6
10D7                       146  ?AB7 EQU *
10D7  95                   147   LDI S+
10D8  D9                   148   RET
10D9  DA 02                149  vline ALLOC 2
10DB  04 06                150   LD 6,S
10DD  38 30                151   MULB #48
10DF  10 00 F8             152   ADD #-2048
10E2  14 08                153   ADD 8,S
10E4  A4 00                154   ST 0,S
10E6                       155  ?AB8 EQU *
10E6  04 06                156   LD 6,S
10E8  E4                   157   INC
10E9  A4 06                158   ST 6,S
10EB  E5                   159   DEC
10EC  84 04                160   CMP 4,S
10EE  CD                   161   ULE
10EF  D1 00 11             162   JZ ?AB9
10F2  94 00                163   LDI 0,S
10F4  0C 0A                164   LDB 10,S
10F6  AA                   165   STB I
10F7  04 00                166   LD 0,S
10F9  18 30                167   ADDB #48
10FB  A4 00                168   ST 0,S
10FD  D0 E6 10             169   JMP ?AB8
1100                       170  ?AB9 EQU *
1100  95                   171   LDI S+
1101  D9                   172   RET
1102                       173  plotxy EQU *
1102  04 02                174   LD 2,S
DUNFIELD CFLEA ASSEMBLER: DEMO                                         PAGE: 4

1104  38 30                175   MULB #48
1106  14 04                176   ADD 4,S
1108  90 00 F8             177   LDI #-2048
110B  E8                   178   ADAI
110C  0C 06                179   LDB 6,S
110E  AA                   180   STB I
110F  D9                   181   RET
1110  04 00                182  randy FDB 4
1112                       183  rng EQU *
1112  01 10 11             184   LD randy
1115  30 8D 35             185   MUL #13709
1118  10 19 36             186   ADD #13849
111B  A1 10 11             187   ST randy
111E                       188  ?AB10 EQU *
111E  D9                   189   RET
111F  DA 5A                190  main ALLOC 90
1121  D8 6C 10             191   CALL clrscr
1124  E0                   192   CLR
1125  DC                   193   PUSHA
1126  D8 44 10             194   CALL vid_mode
1129  DB 02                195   FREE 2
112B  E0                   196   CLR
112C  A4 00                197   ST 0,S
112E                       198  ?AB11 EQU *
112E  04 00                199   LD 0,S
1130  88 0A                200   CMPB #10
1132  CC                   201   ULT
1133  D5 0A                202   SJNZ ?AB13
1135  D0 6B 11             203   JMP ?AB12
1138                       204  ?AB14 EQU *
1138  04 00                205   LD 0,S
113A  E4                   206   INC
113B  A4 00                207   ST 0,S
113D  D3 EF                208   SJMP ?AB11
113F                       209  ?AB13 EQU *
113F  9C 0A                210   LEAI 10,S
1141  DD                   211   PUSHI
1142  00 09 18             212   LD #?AB0+0
1145  DC                   213   PUSHA
1146  04 04                214   LD 4,S
1148  DC                   215   PUSHA
1149  08 03                216   LDB #3
114B  D8 3A 1A             217   CALL sprintf
114E  DB 06                218   FREE 6
1150  9C 0A                219   LEAI 10,S
1152  DD                   220   PUSHI
1153  E0                   221   CLR
1154  DC                   222   PUSHA
1155  E0                   223   CLR
1156  DC                   224   PUSHA
1157  D8 7C 10             225   CALL putsxy
115A  DB 06                226   FREE 6
115C  00 E8 03             227   LD #1000
115F  DC                   228   PUSHA
1160  D8 17 10             229   CALL wait_xms
1163  DB 02                230   FREE 2
1165  D8 6C 10             231   CALL clrscr
1168  D0 38 11             232   JMP ?AB14
DUNFIELD CFLEA ASSEMBLER: DEMO                                         PAGE: 5

116B                       233  ?AB12 EQU *
116B                       234  ?AB15 EQU *
116B  D8 6C 10             235   CALL clrscr
116E  00 15 18             236   LD #?AB0+12
1171  DC                   237   PUSHA
1172  E0                   238   CLR
1173  DC                   239   PUSHA
1174  08 01                240   LDB #1
1176  DC                   241   PUSHA
1177  D8 7C 10             242   CALL putsxy
117A  DB 06                243   FREE 6
117C  E0                   244   CLR
117D  A4 00                245   ST 0,S
117F                       246  ?AB16 EQU *
117F  04 00                247   LD 0,S
1181  88 08                248   CMPB #8
1183  CC                   249   ULT
1184  D5 0A                250   SJNZ ?AB18
1186  D0 BA 11             251   JMP ?AB17
1189                       252  ?AB19 EQU *
1189  04 00                253   LD 0,S
118B  E4                   254   INC
118C  A4 00                255   ST 0,S
118E  D3 EF                256   SJMP ?AB16
1190                       257  ?AB18 EQU *
1190  9C 0A                258   LEAI 10,S
1192  DD                   259   PUSHI
1193  00 3D 18             260   LD #?AB0+52
1196  DC                   261   PUSHA
1197  04 04                262   LD 4,S
1199  DC                   263   PUSHA
119A  08 03                264   LDB #3
119C  D8 3A 1A             265   CALL sprintf
119F  DB 06                266   FREE 6
11A1  9C 0A                267   LEAI 10,S
11A3  DD                   268   PUSHI
11A4  E0                   269   CLR
11A5  DC                   270   PUSHA
11A6  08 02                271   LDB #2
11A8  DC                   272   PUSHA
11A9  D8 7C 10             273   CALL putsxy
11AC  DB 06                274   FREE 6
11AE  00 F4 01             275   LD #500
11B1  DC                   276   PUSHA
11B2  D8 17 10             277   CALL wait_xms
11B5  DB 02                278   FREE 2
11B7  D0 89 11             279   JMP ?AB19
11BA                       280  ?AB17 EQU *
11BA  9C 0A                281   LEAI 10,S
11BC  DD                   282   PUSHI
11BD  D8 A1 1A             283   CALL strlen
11C0  DB 02                284   FREE 2
11C2  A4 02                285   ST 2,S
11C4  00 E8 03             286   LD #1000
11C7  DC                   287   PUSHA
11C8  D8 17 10             288   CALL wait_xms
11CB  DB 02                289   FREE 2
11CD  E0                   290   CLR
DUNFIELD CFLEA ASSEMBLER: DEMO                                         PAGE: 6

11CE  A4 00                291   ST 0,S
11D0                       292  ?AB20 EQU *
11D0  04 00                293   LD 0,S
11D2  88 04                294   CMPB #4
11D4  CC                   295   ULT
11D5  D5 0A                296   SJNZ ?AB22
11D7  D0 00 12             297   JMP ?AB21
11DA                       298  ?AB23 EQU *
11DA  04 00                299   LD 0,S
11DC  E4                   300   INC
11DD  A4 00                301   ST 0,S
11DF  D3 EF                302   SJMP ?AB20
11E1                       303  ?AB22 EQU *
11E1  00 13 18             304   LD #?AB0+10
11E4  DC                   305   PUSHA
11E5  04 04                306   LD 4,S
11E7  E4                   307   INC
11E8  A4 04                308   ST 4,S
11EA  E5                   309   DEC
11EB  DC                   310   PUSHA
11EC  08 02                311   LDB #2
11EE  DC                   312   PUSHA
11EF  D8 7C 10             313   CALL putsxy
11F2  DB 06                314   FREE 6
11F4  00 EE 02             315   LD #750
11F7  DC                   316   PUSHA
11F8  D8 17 10             317   CALL wait_xms
11FB  DB 02                318   FREE 2
11FD  D0 DA 11             319   JMP ?AB23
1200                       320  ?AB21 EQU *
1200  00 55 18             321   LD #?AB0+76
1203  DC                   322   PUSHA
1204  E0                   323   CLR
1205  DC                   324   PUSHA
1206  08 03                325   LDB #3
1208  DC                   326   PUSHA
1209  D8 7C 10             327   CALL putsxy
120C  DB 06                328   FREE 6
120E  00 DC 05             329   LD #1500
1211  DC                   330   PUSHA
1212  D8 17 10             331   CALL wait_xms
1215  DB 02                332   FREE 2
1217  00 74 18             333   LD #?AB0+107
121A  DC                   334   PUSHA
121B  E0                   335   CLR
121C  DC                   336   PUSHA
121D  08 04                337   LDB #4
121F  DC                   338   PUSHA
1220  D8 7C 10             339   CALL putsxy
1223  DB 06                340   FREE 6
1225  00 DC 05             341   LD #1500
1228  DC                   342   PUSHA
1229  D8 17 10             343   CALL wait_xms
122C  DB 02                344   FREE 2
122E  00 8C 18             345   LD #?AB0+131
1231  DC                   346   PUSHA
1232  E0                   347   CLR
1233  DC                   348   PUSHA
DUNFIELD CFLEA ASSEMBLER: DEMO                                         PAGE: 7

1234  08 05                349   LDB #5
1236  DC                   350   PUSHA
1237  D8 7C 10             351   CALL putsxy
123A  DB 06                352   FREE 6
123C  00 D0 07             353   LD #2000
123F  DC                   354   PUSHA
1240  D8 17 10             355   CALL wait_xms
1243  DB 02                356   FREE 2
1245  D8 6C 10             357   CALL clrscr
1248  00 15 18             358   LD #?AB0+12
124B  DC                   359   PUSHA
124C  E0                   360   CLR
124D  DC                   361   PUSHA
124E  08 01                362   LDB #1
1250  DC                   363   PUSHA
1251  D8 7C 10             364   CALL putsxy
1254  DB 06                365   FREE 6
1256  08 08                366   LDB #8
1258  A4 00                367   ST 0,S
125A                       368  ?AB24 EQU *
125A  04 00                369   LD 0,S
125C  88 3D                370   CMPB #61
125E  CC                   371   ULT
125F  D5 0A                372   SJNZ ?AB26
1261  D0 94 12             373   JMP ?AB25
1264                       374  ?AB27 EQU *
1264  04 00                375   LD 0,S
1266  E4                   376   INC
1267  A4 00                377   ST 0,S
1269  D3 EF                378   SJMP ?AB24
126B                       379  ?AB26 EQU *
126B  9C 0A                380   LEAI 10,S
126D  DD                   381   PUSHI
126E  00 3D 18             382   LD #?AB0+52
1271  DC                   383   PUSHA
1272  04 04                384   LD 4,S
1274  DC                   385   PUSHA
1275  08 03                386   LDB #3
1277  D8 3A 1A             387   CALL sprintf
127A  DB 06                388   FREE 6
127C  9C 0A                389   LEAI 10,S
127E  DD                   390   PUSHI
127F  E0                   391   CLR
1280  DC                   392   PUSHA
1281  08 02                393   LDB #2
1283  DC                   394   PUSHA
1284  D8 7C 10             395   CALL putsxy
1287  DB 06                396   FREE 6
1289  08 64                397   LDB #100
128B  DC                   398   PUSHA
128C  D8 17 10             399   CALL wait_xms
128F  DB 02                400   FREE 2
1291  D0 64 12             401   JMP ?AB27
1294                       402  ?AB25 EQU *
1294  00 C4 18             403   LD #?AB0+187
1297  DC                   404   PUSHA
1298  E0                   405   CLR
1299  DC                   406   PUSHA
DUNFIELD CFLEA ASSEMBLER: DEMO                                         PAGE: 8

129A  08 03                407   LDB #3
129C  DC                   408   PUSHA
129D  D8 7C 10             409   CALL putsxy
12A0  DB 06                410   FREE 6
12A2  00 E8 03             411   LD #1000
12A5  DC                   412   PUSHA
12A6  D8 17 10             413   CALL wait_xms
12A9  DB 02                414   FREE 2
12AB  D8 6C 10             415   CALL clrscr
12AE  00 F5 18             416   LD #?AB0+236
12B1  DC                   417   PUSHA
12B2  E0                   418   CLR
12B3  DC                   419   PUSHA
12B4  08 01                420   LDB #1
12B6  DC                   421   PUSHA
12B7  D8 7C 10             422   CALL putsxy
12BA  DB 06                423   FREE 6
12BC  00 00 19             424   LD #?AB0+247
12BF  DC                   425   PUSHA
12C0  08 0A                426   LDB #10
12C2  DC                   427   PUSHA
12C3  08 0A                428   LDB #10
12C5  DC                   429   PUSHA
12C6  D8 7C 10             430   CALL putsxy
12C9  DB 06                431   FREE 6
12CB  00 B8 0B             432   LD #3000
12CE  DC                   433   PUSHA
12CF  D8 17 10             434   CALL wait_xms
12D2  DB 02                435   FREE 2
12D4  00 02 19             436   LD #?AB0+249
12D7  DC                   437   PUSHA
12D8  E0                   438   CLR
12D9  DC                   439   PUSHA
12DA  08 02                440   LDB #2
12DC  DC                   441   PUSHA
12DD  D8 7C 10             442   CALL putsxy
12E0  DB 06                443   FREE 6
12E2  00 DC 05             444   LD #1500
12E5  DC                   445   PUSHA
12E6  D8 17 10             446   CALL wait_xms
12E9  DB 02                447   FREE 2
12EB  00 0A 19             448   LD #?AB0+257
12EE  DC                   449   PUSHA
12EF  E0                   450   CLR
12F0  DC                   451   PUSHA
12F1  08 03                452   LDB #3
12F3  DC                   453   PUSHA
12F4  D8 7C 10             454   CALL putsxy
12F7  DB 06                455   FREE 6
12F9  00 DC 05             456   LD #1500
12FC  DC                   457   PUSHA
12FD  D8 17 10             458   CALL wait_xms
1300  DB 02                459   FREE 2
1302                       460  ?AB28 EQU *
1302  D8 6C 10             461   CALL clrscr
1305  00 02 00             462   LD #stars
1308  DC                   463   PUSHA
1309  E0                   464   CLR
DUNFIELD CFLEA ASSEMBLER: DEMO                                         PAGE: 9

130A  DC                   465   PUSHA
130B  00 60 04             466   LD #1120
130E  DC                   467   PUSHA
130F  D8 5C 1A             468   CALL memset
1312  DB 06                469   FREE 6
1314  E0                   470   CLR
1315  A4 04                471   ST 4,S
1317                       472  ?AB29 EQU *
1317  04 04                473   LD 4,S
1319  88 F0                474   CMPB #240
131B  CC                   475   ULT
131C  D5 0A                476   SJNZ ?AB31
131E  D0 10 15             477   JMP ?AB30
1321                       478  ?AB32 EQU *
1321  04 04                479   LD 4,S
1323  E4                   480   INC
1324  A4 04                481   ST 4,S
1326  D3 EF                482   SJMP ?AB29
1328                       483  ?AB31 EQU *
1328  E0                   484   CLR
1329  A4 00                485   ST 0,S
132B                       486  ?AB33 EQU *
132B  04 00                487   LD 0,S
132D  88 50                488   CMPB #80
132F  CC                   489   ULT
1330  D5 0A                490   SJNZ ?AB35
1332  D0 EB 14             491   JMP ?AB34
1335                       492  ?AB36 EQU *
1335  04 00                493   LD 0,S
1337  E4                   494   INC
1338  A4 00                495   ST 0,S
133A  D3 EF                496   SJMP ?AB33
133C                       497  ?AB35 EQU *
133C  90 02 00             498   LDI #stars
133F  04 00                499   LD 0,S
1341  38 02                500   MULB #2
1343  E8                   501   ADAI
1344  02                   502   LD I
1345  88 00                503   CMPB #0
1347  D1 AE 13             504   JZ ?AB37
134A  90 02 00             505   LDI #stars
134D  04 00                506   LD 0,S
134F  38 02                507   MULB #2
1351  E8                   508   ADAI
1352  00 80 02             509   LD #640
1355  A2                   510   ST I
1356  90 02 00             511   LDI #stars
1359  9B A0                512   LEAI 160,I
135B  04 00                513   LD 0,S
135D  38 02                514   MULB #2
135F  E8                   515   ADAI
1360  08 C0                516   LDB #192
1362  A2                   517   ST I
1363  90 42 01             518   LDI #stars+320
1366  04 00                519   LD 0,S
1368  38 02                520   MULB #2
136A  E8                   521   ADAI
136B  DD                   522   PUSHI
DUNFIELD CFLEA ASSEMBLER: DEMO                                         PAGE: 10

136C  D8 12 11             523   CALL rng
136F  B8 05                524   SHR #5
1371  58 0F                525   ANDB #15
1373  18 01                526   ADDB #1
1375  A6                   527   ST [S+]
1376  90 E2 01             528   LDI #stars+480
1379  04 00                529   LD 0,S
137B  38 02                530   MULB #2
137D  E8                   531   ADAI
137E  DD                   532   PUSHI
137F  D8 12 11             533   CALL rng
1382  B8 07                534   SHR #7
1384  58 0F                535   ANDB #15
1386  18 01                536   ADDB #1
1388  A6                   537   ST [S+]
1389  90 82 02             538   LDI #stars+640
138C  04 00                539   LD 0,S
138E  38 02                540   MULB #2
1390  E8                   541   ADAI
1391  DD                   542   PUSHI
1392  D8 12 11             543   CALL rng
1395  B8 07                544   SHR #7
1397  58 01                545   ANDB #1
1399  A6                   546   ST [S+]
139A  90 22 03             547   LDI #stars+800
139D  04 00                548   LD 0,S
139F  38 02                549   MULB #2
13A1  E8                   550   ADAI
13A2  DD                   551   PUSHI
13A3  D8 12 11             552   CALL rng
13A6  B8 03                553   SHR #3
13A8  58 01                554   ANDB #1
13AA  A6                   555   ST [S+]
13AB  D0 B3 14             556   JMP ?AB38
13AE                       557  ?AB37 EQU *
13AE  90 82 02             558   LDI #stars+640
13B1  04 00                559   LD 0,S
13B3  38 02                560   MULB #2
13B5  E8                   561   ADAI
13B6  02                   562   LD I
13B7  88 00                563   CMPB #0
13B9  D1 D3 13             564   JZ ?AB39
13BC  90 02 00             565   LDI #stars
13BF  04 00                566   LD 0,S
13C1  38 02                567   MULB #2
13C3  E8                   568   ADAI
13C4  DD                   569   PUSHI
13C5  90 42 01             570   LDI #stars+320
13C8  04 02                571   LD 2,S
13CA  38 02                572   MULB #2
13CC  E8                   573   ADAI
13CD  07                   574   LD [S]
13CE  12                   575   ADD I
13CF  A6                   576   ST [S+]
13D0  D0 0B 14             577   JMP ?AB40
13D3                       578  ?AB39 EQU *
13D3  90 02 00             579   LDI #stars
13D6  04 00                580   LD 0,S
DUNFIELD CFLEA ASSEMBLER: DEMO                                         PAGE: 11

13D8  38 02                581   MULB #2
13DA  E8                   582   ADAI
13DB  DD                   583   PUSHI
13DC  90 42 01             584   LDI #stars+320
13DF  04 02                585   LD 2,S
13E1  38 02                586   MULB #2
13E3  E8                   587   ADAI
13E4  06                   588   LD [S+]
13E5  82                   589   CMP I
13E6  CE                   590   UGT
13E7  D1 01 14             591   JZ ?AB41
13EA  90 02 00             592   LDI #stars
13ED  04 00                593   LD 0,S
13EF  38 02                594   MULB #2
13F1  E8                   595   ADAI
13F2  DD                   596   PUSHI
13F3  90 42 01             597   LDI #stars+320
13F6  04 02                598   LD 2,S
13F8  38 02                599   MULB #2
13FA  E8                   600   ADAI
13FB  07                   601   LD [S]
13FC  22                   602   SUB I
13FD  A6                   603   ST [S+]
13FE  D0 0B 14             604   JMP ?AB42
1401                       605  ?AB41 EQU *
1401  90 02 00             606   LDI #stars
1404  04 00                607   LD 0,S
1406  38 02                608   MULB #2
1408  E8                   609   ADAI
1409  E0                   610   CLR
140A  A2                   611   ST I
140B                       612  ?AB42 EQU *
140B                       613  ?AB40 EQU *
140B  90 22 03             614   LDI #stars+800
140E  04 00                615   LD 0,S
1410  38 02                616   MULB #2
1412  E8                   617   ADAI
1413  02                   618   LD I
1414  88 00                619   CMPB #0
1416  D1 32 14             620   JZ ?AB43
1419  90 02 00             621   LDI #stars
141C  9B A0                622   LEAI 160,I
141E  04 00                623   LD 0,S
1420  38 02                624   MULB #2
1422  E8                   625   ADAI
1423  DD                   626   PUSHI
1424  90 E2 01             627   LDI #stars+480
1427  04 02                628   LD 2,S
1429  38 02                629   MULB #2
142B  E8                   630   ADAI
142C  07                   631   LD [S]
142D  12                   632   ADD I
142E  A6                   633   ST [S+]
142F  D0 70 14             634   JMP ?AB44
1432                       635  ?AB43 EQU *
1432  90 02 00             636   LDI #stars
1435  9B A0                637   LEAI 160,I
1437  04 00                638   LD 0,S
DUNFIELD CFLEA ASSEMBLER: DEMO                                         PAGE: 12

1439  38 02                639   MULB #2
143B  E8                   640   ADAI
143C  DD                   641   PUSHI
143D  90 E2 01             642   LDI #stars+480
1440  04 02                643   LD 2,S
1442  38 02                644   MULB #2
1444  E8                   645   ADAI
1445  06                   646   LD [S+]
1446  82                   647   CMP I
1447  CE                   648   UGT
1448  D1 64 14             649   JZ ?AB45
144B  90 02 00             650   LDI #stars
144E  9B A0                651   LEAI 160,I
1450  04 00                652   LD 0,S
1452  38 02                653   MULB #2
1454  E8                   654   ADAI
1455  DD                   655   PUSHI
1456  90 E2 01             656   LDI #stars+480
1459  04 02                657   LD 2,S
145B  38 02                658   MULB #2
145D  E8                   659   ADAI
145E  07                   660   LD [S]
145F  22                   661   SUB I
1460  A6                   662   ST [S+]
1461  D0 70 14             663   JMP ?AB46
1464                       664  ?AB45 EQU *
1464  90 02 00             665   LDI #stars
1467  9B A0                666   LEAI 160,I
1469  04 00                667   LD 0,S
146B  38 02                668   MULB #2
146D  E8                   669   ADAI
146E  E0                   670   CLR
146F  A2                   671   ST I
1470                       672  ?AB46 EQU *
1470                       673  ?AB44 EQU *
1470  90 02 00             674   LDI #stars
1473  04 00                675   LD 0,S
1475  38 02                676   MULB #2
1477  E8                   677   ADAI
1478  02                   678   LD I
1479  B8 04                679   SHR #4
147B  A4 06                680   ST 6,S
147D  90 02 00             681   LDI #stars
1480  9B A0                682   LEAI 160,I
1482  04 00                683   LD 0,S
1484  38 02                684   MULB #2
1486  E8                   685   ADAI
1487  02                   686   LD I
1488  B8 04                687   SHR #4
148A  A4 08                688   ST 8,S
148C  04 06                689   LD 6,S
148E  88 01                690   CMPB #1
1490  CD                   691   ULE
1491  D5 13                692   SJNZ ?AB48
1493  04 06                693   LD 6,S
1495  88 4E                694   CMPB #78
1497  CF                   695   UGE
1498  D5 0C                696   SJNZ ?AB49
DUNFIELD CFLEA ASSEMBLER: DEMO                                         PAGE: 13

149A  04 08                697   LD 8,S
149C  88 01                698   CMPB #1
149E  CD                   699   ULE
149F  D5 05                700   SJNZ ?AB50
14A1  04 08                701   LD 8,S
14A3  88 17                702   CMPB #23
14A5  CF                   703   UGE
14A6                       704  ?AB50 EQU *
14A6                       705  ?AB49 EQU *
14A6                       706  ?AB48 EQU *
14A6  D1 B3 14             707   JZ ?AB47
14A9  90 02 00             708   LDI #stars
14AC  04 00                709   LD 0,S
14AE  38 02                710   MULB #2
14B0  E8                   711   ADAI
14B1  E0                   712   CLR
14B2  A2                   713   ST I
14B3                       714  ?AB47 EQU *
14B3                       715  ?AB38 EQU *
14B3  90 02 00             716   LDI #stars
14B6  04 00                717   LD 0,S
14B8  38 02                718   MULB #2
14BA  E8                   719   ADAI
14BB  02                   720   LD I
14BC  88 00                721   CMPB #0
14BE  D2 E8 14             722   JNZ ?AB51
14C1  90 02 00             723   LDI #stars
14C4  04 00                724   LD 0,S
14C6  38 02                725   MULB #2
14C8  E8                   726   ADAI
14C9  02                   727   LD I
14CA  B8 04                728   SHR #4
14CC  A4 06                729   ST 6,S
14CE  90 02 00             730   LDI #stars
14D1  9B A0                731   LEAI 160,I
14D3  04 00                732   LD 0,S
14D5  38 02                733   MULB #2
14D7  E8                   734   ADAI
14D8  02                   735   LD I
14D9  B8 04                736   SHR #4
14DB  A4 08                737   ST 8,S
14DD  38 50                738   MULB #80
14DF  14 06                739   ADD 6,S
14E1  90 00 F8             740   LDI #-2048
14E4  E8                   741   ADAI
14E5  08 2A                742   LDB #42
14E7  AA                   743   STB I
14E8                       744  ?AB51 EQU *
14E8  D0 35 13             745   JMP ?AB36
14EB                       746  ?AB34 EQU *
14EB  04 04                747   LD 4,S
14ED  88 5A                748   CMPB #90
14EF  CE                   749   UGT
14F0  D1 02 15             750   JZ ?AB52
14F3  00 32 19             751   LD #?AB0+297
14F6  DC                   752   PUSHA
14F7  08 07                753   LDB #7
14F9  DC                   754   PUSHA
DUNFIELD CFLEA ASSEMBLER: DEMO                                         PAGE: 14

14FA  08 03                755   LDB #3
14FC  DC                   756   PUSHA
14FD  D8 7C 10             757   CALL putsxy
1500  DB 06                758   FREE 6
1502                       759  ?AB52 EQU *
1502  08 21                760   LDB #33
1504  DC                   761   PUSHA
1505  D8 0D 10             762   CALL wait_ms
1508  DB 02                763   FREE 2
150A  D8 6C 10             764   CALL clrscr
150D  D0 21 13             765   JMP ?AB32
1510                       766  ?AB30 EQU *
1510                       767  ?AB53 EQU *
1510  08 01                768   LDB #1
1512  DC                   769   PUSHA
1513  D8 44 10             770   CALL vid_mode
1516  DB 02                771   FREE 2
1518  D8 6C 10             772   CALL clrscr
151B  00 02 00             773   LD #stars
151E  DC                   774   PUSHA
151F  E0                   775   CLR
1520  DC                   776   PUSHA
1521  00 60 04             777   LD #1120
1524  DC                   778   PUSHA
1525  D8 5C 1A             779   CALL memset
1528  DB 06                780   FREE 6
152A  E0                   781   CLR
152B  A4 04                782   ST 4,S
152D                       783  ?AB54 EQU *
152D  04 04                784   LD 4,S
152F  80 58 02             785   CMP #600
1532  CC                   786   ULT
1533  D5 0A                787   SJNZ ?AB56
1535  D0 2A 17             788   JMP ?AB55
1538                       789  ?AB57 EQU *
1538  04 04                790   LD 4,S
153A  E4                   791   INC
153B  A4 04                792   ST 4,S
153D  D3 EE                793   SJMP ?AB54
153F                       794  ?AB56 EQU *
153F  E0                   795   CLR
1540  A4 00                796   ST 0,S
1542                       797  ?AB58 EQU *
1542  04 00                798   LD 0,S
1544  88 50                799   CMPB #80
1546  CC                   800   ULT
1547  D5 0A                801   SJNZ ?AB60
1549  D0 1C 17             802   JMP ?AB59
154C                       803  ?AB61 EQU *
154C  04 00                804   LD 0,S
154E  E4                   805   INC
154F  A4 00                806   ST 0,S
1551  D3 EF                807   SJMP ?AB58
1553                       808  ?AB60 EQU *
1553  90 02 00             809   LDI #stars
1556  04 00                810   LD 0,S
1558  38 02                811   MULB #2
155A  E8                   812   ADAI
DUNFIELD CFLEA ASSEMBLER: DEMO                                         PAGE: 15

155B  02                   813   LD I
155C  88 00                814   CMPB #0
155E  D1 D7 15             815   JZ ?AB62
1561  90 02 00             816   LDI #stars
1564  04 00                817   LD 0,S
1566  38 02                818   MULB #2
1568  E8                   819   ADAI
1569  00 80 01             820   LD #384
156C  A2                   821   ST I
156D  90 02 00             822   LDI #stars
1570  9B A0                823   LEAI 160,I
1572  04 00                824   LD 0,S
1574  38 02                825   MULB #2
1576  E8                   826   ADAI
1577  00 40 01             827   LD #320
157A  A2                   828   ST I
157B  90 42 01             829   LDI #stars+320
157E  04 00                830   LD 0,S
1580  38 02                831   MULB #2
1582  E8                   832   ADAI
1583  DD                   833   PUSHI
1584  D8 12 11             834   CALL rng
1587  B8 05                835   SHR #5
1589  58 0F                836   ANDB #15
158B  18 01                837   ADDB #1
158D  A6                   838   ST [S+]
158E  90 E2 01             839   LDI #stars+480
1591  04 00                840   LD 0,S
1593  38 02                841   MULB #2
1595  E8                   842   ADAI
1596  DD                   843   PUSHI
1597  D8 12 11             844   CALL rng
159A  B8 07                845   SHR #7
159C  58 0F                846   ANDB #15
159E  18 01                847   ADDB #1
15A0  A6                   848   ST [S+]
15A1  90 82 02             849   LDI #stars+640
15A4  04 00                850   LD 0,S
15A6  38 02                851   MULB #2
15A8  E8                   852   ADAI
15A9  DD                   853   PUSHI
15AA  D8 12 11             854   CALL rng
15AD  B8 07                855   SHR #7
15AF  58 01                856   ANDB #1
15B1  A6                   857   ST [S+]
15B2  90 22 03             858   LDI #stars+800
15B5  04 00                859   LD 0,S
15B7  38 02                860   MULB #2
15B9  E8                   861   ADAI
15BA  DD                   862   PUSHI
15BB  D8 12 11             863   CALL rng
15BE  B8 03                864   SHR #3
15C0  58 01                865   ANDB #1
15C2  A6                   866   ST [S+]
15C3  90 C2 03             867   LDI #stars+960
15C6  04 00                868   LD 0,S
15C8  38 02                869   MULB #2
15CA  E8                   870   ADAI
DUNFIELD CFLEA ASSEMBLER: DEMO                                         PAGE: 16

15CB  DD                   871   PUSHI
15CC  D8 12 11             872   CALL rng
15CF  B8 03                873   SHR #3
15D1  58 FF                874   ANDB #255
15D3  A6                   875   ST [S+]
15D4  D0 DC 16             876   JMP ?AB63
15D7                       877  ?AB62 EQU *
15D7  90 82 02             878   LDI #stars+640
15DA  04 00                879   LD 0,S
15DC  38 02                880   MULB #2
15DE  E8                   881   ADAI
15DF  02                   882   LD I
15E0  88 00                883   CMPB #0
15E2  D1 FC 15             884   JZ ?AB64
15E5  90 02 00             885   LDI #stars
15E8  04 00                886   LD 0,S
15EA  38 02                887   MULB #2
15EC  E8                   888   ADAI
15ED  DD                   889   PUSHI
15EE  90 42 01             890   LDI #stars+320
15F1  04 02                891   LD 2,S
15F3  38 02                892   MULB #2
15F5  E8                   893   ADAI
15F6  07                   894   LD [S]
15F7  12                   895   ADD I
15F8  A6                   896   ST [S+]
15F9  D0 34 16             897   JMP ?AB65
15FC                       898  ?AB64 EQU *
15FC  90 02 00             899   LDI #stars
15FF  04 00                900   LD 0,S
1601  38 02                901   MULB #2
1603  E8                   902   ADAI
1604  DD                   903   PUSHI
1605  90 42 01             904   LDI #stars+320
1608  04 02                905   LD 2,S
160A  38 02                906   MULB #2
160C  E8                   907   ADAI
160D  06                   908   LD [S+]
160E  82                   909   CMP I
160F  CE                   910   UGT
1610  D1 2A 16             911   JZ ?AB66
1613  90 02 00             912   LDI #stars
1616  04 00                913   LD 0,S
1618  38 02                914   MULB #2
161A  E8                   915   ADAI
161B  DD                   916   PUSHI
161C  90 42 01             917   LDI #stars+320
161F  04 02                918   LD 2,S
1621  38 02                919   MULB #2
1623  E8                   920   ADAI
1624  07                   921   LD [S]
1625  22                   922   SUB I
1626  A6                   923   ST [S+]
1627  D0 34 16             924   JMP ?AB67
162A                       925  ?AB66 EQU *
162A  90 02 00             926   LDI #stars
162D  04 00                927   LD 0,S
162F  38 02                928   MULB #2
DUNFIELD CFLEA ASSEMBLER: DEMO                                         PAGE: 17

1631  E8                   929   ADAI
1632  E0                   930   CLR
1633  A2                   931   ST I
1634                       932  ?AB67 EQU *
1634                       933  ?AB65 EQU *
1634  90 22 03             934   LDI #stars+800
1637  04 00                935   LD 0,S
1639  38 02                936   MULB #2
163B  E8                   937   ADAI
163C  02                   938   LD I
163D  88 00                939   CMPB #0
163F  D1 5B 16             940   JZ ?AB68
1642  90 02 00             941   LDI #stars
1645  9B A0                942   LEAI 160,I
1647  04 00                943   LD 0,S
1649  38 02                944   MULB #2
164B  E8                   945   ADAI
164C  DD                   946   PUSHI
164D  90 E2 01             947   LDI #stars+480
1650  04 02                948   LD 2,S
1652  38 02                949   MULB #2
1654  E8                   950   ADAI
1655  07                   951   LD [S]
1656  12                   952   ADD I
1657  A6                   953   ST [S+]
1658  D0 99 16             954   JMP ?AB69
165B                       955  ?AB68 EQU *
165B  90 02 00             956   LDI #stars
165E  9B A0                957   LEAI 160,I
1660  04 00                958   LD 0,S
1662  38 02                959   MULB #2
1664  E8                   960   ADAI
1665  DD                   961   PUSHI
1666  90 E2 01             962   LDI #stars+480
1669  04 02                963   LD 2,S
166B  38 02                964   MULB #2
166D  E8                   965   ADAI
166E  06                   966   LD [S+]
166F  82                   967   CMP I
1670  CE                   968   UGT
1671  D1 8D 16             969   JZ ?AB70
1674  90 02 00             970   LDI #stars
1677  9B A0                971   LEAI 160,I
1679  04 00                972   LD 0,S
167B  38 02                973   MULB #2
167D  E8                   974   ADAI
167E  DD                   975   PUSHI
167F  90 E2 01             976   LDI #stars+480
1682  04 02                977   LD 2,S
1684  38 02                978   MULB #2
1686  E8                   979   ADAI
1687  07                   980   LD [S]
1688  22                   981   SUB I
1689  A6                   982   ST [S+]
168A  D0 99 16             983   JMP ?AB71
168D                       984  ?AB70 EQU *
168D  90 02 00             985   LDI #stars
1690  9B A0                986   LEAI 160,I
DUNFIELD CFLEA ASSEMBLER: DEMO                                         PAGE: 18

1692  04 00                987   LD 0,S
1694  38 02                988   MULB #2
1696  E8                   989   ADAI
1697  E0                   990   CLR
1698  A2                   991   ST I
1699                       992  ?AB71 EQU *
1699                       993  ?AB69 EQU *
1699  90 02 00             994   LDI #stars
169C  04 00                995   LD 0,S
169E  38 02                996   MULB #2
16A0  E8                   997   ADAI
16A1  02                   998   LD I
16A2  B8 04                999   SHR #4
16A4  A4 06               1000   ST 6,S
16A6  90 02 00            1001   LDI #stars
16A9  9B A0               1002   LEAI 160,I
16AB  04 00               1003   LD 0,S
16AD  38 02               1004   MULB #2
16AF  E8                  1005   ADAI
16B0  02                  1006   LD I
16B1  B8 04               1007   SHR #4
16B3  A4 08               1008   ST 8,S
16B5  04 06               1009   LD 6,S
16B7  88 01               1010   CMPB #1
16B9  CD                  1011   ULE
16BA  D5 13               1012   SJNZ ?AB73
16BC  04 06               1013   LD 6,S
16BE  88 2F               1014   CMPB #47
16C0  CF                  1015   UGE
16C1  D5 0C               1016   SJNZ ?AB74
16C3  04 08               1017   LD 8,S
16C5  88 01               1018   CMPB #1
16C7  CD                  1019   ULE
16C8  D5 05               1020   SJNZ ?AB75
16CA  04 08               1021   LD 8,S
16CC  88 27               1022   CMPB #39
16CE  CF                  1023   UGE
16CF                      1024  ?AB75 EQU *
16CF                      1025  ?AB74 EQU *
16CF                      1026  ?AB73 EQU *
16CF  D1 DC 16            1027   JZ ?AB72
16D2  90 02 00            1028   LDI #stars
16D5  04 00               1029   LD 0,S
16D7  38 02               1030   MULB #2
16D9  E8                  1031   ADAI
16DA  E0                  1032   CLR
16DB  A2                  1033   ST I
16DC                      1034  ?AB72 EQU *
16DC                      1035  ?AB63 EQU *
16DC  90 02 00            1036   LDI #stars
16DF  04 00               1037   LD 0,S
16E1  38 02               1038   MULB #2
16E3  E8                  1039   ADAI
16E4  02                  1040   LD I
16E5  88 00               1041   CMPB #0
16E7  D2 19 17            1042   JNZ ?AB76
16EA  90 02 00            1043   LDI #stars
16ED  04 00               1044   LD 0,S
DUNFIELD CFLEA ASSEMBLER: DEMO                                         PAGE: 19

16EF  38 02               1045   MULB #2
16F1  E8                  1046   ADAI
16F2  02                  1047   LD I
16F3  B8 04               1048   SHR #4
16F5  A4 06               1049   ST 6,S
16F7  90 02 00            1050   LDI #stars
16FA  9B A0               1051   LEAI 160,I
16FC  04 00               1052   LD 0,S
16FE  38 02               1053   MULB #2
1700  E8                  1054   ADAI
1701  02                  1055   LD I
1702  B8 04               1056   SHR #4
1704  A4 08               1057   ST 8,S
1706  38 30               1058   MULB #48
1708  14 06               1059   ADD 6,S
170A  90 00 F8            1060   LDI #-2048
170D  E8                  1061   ADAI
170E  DD                  1062   PUSHI
170F  90 C2 03            1063   LDI #stars+960
1712  04 02               1064   LD 2,S
1714  38 02               1065   MULB #2
1716  E8                  1066   ADAI
1717  02                  1067   LD I
1718  AE                  1068   STB [S+]
1719                      1069  ?AB76 EQU *
1719  D0 4C 15            1070   JMP ?AB61
171C                      1071  ?AB59 EQU *
171C  08 21               1072   LDB #33
171E  DC                  1073   PUSHA
171F  D8 0D 10            1074   CALL wait_ms
1722  DB 02               1075   FREE 2
1724  D8 6C 10            1076   CALL clrscr
1727  D0 38 15            1077   JMP ?AB57
172A                      1078  ?AB55 EQU *
172A  E0                  1079   CLR
172B  DC                  1080   PUSHA
172C  D8 44 10            1081   CALL vid_mode
172F  DB 02               1082   FREE 2
1731  D8 6C 10            1083   CALL clrscr
1734  00 50 19            1084   LD #?AB0+327
1737  DC                  1085   PUSHA
1738  E0                  1086   CLR
1739  DC                  1087   PUSHA
173A  08 01               1088   LDB #1
173C  DC                  1089   PUSHA
173D  D8 7C 10            1090   CALL putsxy
1740  DB 06               1091   FREE 6
1742  00 F4 01            1092   LD #500
1745  DC                  1093   PUSHA
1746  D8 17 10            1094   CALL wait_xms
1749  DB 02               1095   FREE 2
174B  00 65 19            1096   LD #?AB0+348
174E  DC                  1097   PUSHA
174F  E0                  1098   CLR
1750  DC                  1099   PUSHA
1751  08 02               1100   LDB #2
1753  DC                  1101   PUSHA
1754  D8 7C 10            1102   CALL putsxy
DUNFIELD CFLEA ASSEMBLER: DEMO                                         PAGE: 20

1757  DB 06               1103   FREE 6
1759  00 F4 01            1104   LD #500
175C  DC                  1105   PUSHA
175D  D8 17 10            1106   CALL wait_xms
1760  DB 02               1107   FREE 2
1762  00 79 19            1108   LD #?AB0+368
1765  DC                  1109   PUSHA
1766  E0                  1110   CLR
1767  DC                  1111   PUSHA
1768  08 03               1112   LDB #3
176A  DC                  1113   PUSHA
176B  D8 7C 10            1114   CALL putsxy
176E  DB 06               1115   FREE 6
1770  00 F4 01            1116   LD #500
1773  DC                  1117   PUSHA
1774  D8 17 10            1118   CALL wait_xms
1777  DB 02               1119   FREE 2
1779  00 95 19            1120   LD #?AB0+396
177C  DC                  1121   PUSHA
177D  E0                  1122   CLR
177E  DC                  1123   PUSHA
177F  08 04               1124   LDB #4
1781  DC                  1125   PUSHA
1782  D8 7C 10            1126   CALL putsxy
1785  DB 06               1127   FREE 6
1787  00 F4 01            1128   LD #500
178A  DC                  1129   PUSHA
178B  D8 17 10            1130   CALL wait_xms
178E  DB 02               1131   FREE 2
1790  00 AD 19            1132   LD #?AB0+420
1793  DC                  1133   PUSHA
1794  E0                  1134   CLR
1795  DC                  1135   PUSHA
1796  08 05               1136   LDB #5
1798  DC                  1137   PUSHA
1799  D8 7C 10            1138   CALL putsxy
179C  DB 06               1139   FREE 6
179E  00 E2 04            1140   LD #1250
17A1  DC                  1141   PUSHA
17A2  D8 17 10            1142   CALL wait_xms
17A5  DB 02               1143   FREE 2
17A7  00 CD 19            1144   LD #?AB0+452
17AA  DC                  1145   PUSHA
17AB  E0                  1146   CLR
17AC  DC                  1147   PUSHA
17AD  08 06               1148   LDB #6
17AF  DC                  1149   PUSHA
17B0  D8 7C 10            1150   CALL putsxy
17B3  DB 06               1151   FREE 6
17B5  00 F4 01            1152   LD #500
17B8  DC                  1153   PUSHA
17B9  D8 17 10            1154   CALL wait_xms
17BC  DB 02               1155   FREE 2
17BE  00 E9 19            1156   LD #?AB0+480
17C1  DC                  1157   PUSHA
17C2  E0                  1158   CLR
17C3  DC                  1159   PUSHA
17C4  08 07               1160   LDB #7
DUNFIELD CFLEA ASSEMBLER: DEMO                                         PAGE: 21

17C6  DC                  1161   PUSHA
17C7  D8 7C 10            1162   CALL putsxy
17CA  DB 06               1163   FREE 6
17CC  00 F4 01            1164   LD #500
17CF  DC                  1165   PUSHA
17D0  D8 17 10            1166   CALL wait_xms
17D3  DB 02               1167   FREE 2
17D5  00 0A 1A            1168   LD #?AB0+513
17D8  DC                  1169   PUSHA
17D9  E0                  1170   CLR
17DA  DC                  1171   PUSHA
17DB  08 08               1172   LDB #8
17DD  DC                  1173   PUSHA
17DE  D8 7C 10            1174   CALL putsxy
17E1  DB 06               1175   FREE 6
17E3  00 E2 04            1176   LD #1250
17E6  DC                  1177   PUSHA
17E7  D8 17 10            1178   CALL wait_xms
17EA  DB 02               1179   FREE 2
17EC  00 12 1A            1180   LD #?AB0+521
17EF  DC                  1181   PUSHA
17F0  E0                  1182   CLR
17F1  DC                  1183   PUSHA
17F2  08 09               1184   LDB #9
17F4  DC                  1185   PUSHA
17F5  D8 7C 10            1186   CALL putsxy
17F8  DB 06               1187   FREE 6
17FA  00 88 13            1188   LD #5000
17FD  DC                  1189   PUSHA
17FE  D8 17 10            1190   CALL wait_xms
1801  DB 02               1191   FREE 2
1803  D0 6B 11            1192   JMP ?AB15
1806  DB 5A               1193   FREE 90
1808  D9                  1194   RET
1809  4C 65 61 64 3A 20 + 1195  ?AB0 FCB 76,101,97,100,58,32,37,100,46,46,46,0,66,111,111,116
1819  69 6E 67 20 43 2D + 1196   FCB 105,110,103,32,67,45,70,76,69,65,32,80,114,105,109,101
1829  72 32 35 4B 20 43 + 1197   FCB 114,50,53,75,32,67,73,83,67,32,84,104,105,110,103,121
1839  2E 2E 2E 00 54 65 + 1198   FCB 46,46,46,0,84,101,115,116,105,110,103,32,109,101,109,111
1849  72 79 3A 20 25 30 + 1199   FCB 114,121,58,32,37,48,50,100,32,75,66,0,87,104,101,114
1859  65 20 74 68 65 20 + 1200   FCB 101,32,116,104,101,32,102,32,105,115,32,116,104,101,32,56
1869  27 74 68 20 4B 42 + 1201   FCB 39,116,104,32,75,66,46,46,46,46,0,71,39,100,97,109
1879  6E 20 43 68 69 6E + 1202   FCB 110,32,67,104,105,110,101,115,101,32,115,108,111,112,46,46
1889  2E 2E 00 41 68 61 + 1203   FCB 46,46,0,65,104,97,44,32,111,102,102,32,98,121,32,111
1899  6E 65 20 69 6E 20 + 1204   FCB 110,101,32,105,110,32,116,104,101,32,109,101,109,111,114,121
18A9  20 6D 61 70 2C 20 + 1205   FCB 32,109,97,112,44,32,111,107,32,98,97,99,107,32,116,111
18B9  20 74 68 65 20 73 + 1206   FCB 32,116,104,101,32,115,104,111,119,33,0,66,111,111,116,101
18C9  64 2C 20 6E 6F 77 + 1207   FCB 100,44,32,110,111,119,32,101,120,112,101,114,105,101,110,99
18D9  65 20 74 68 65 20 + 1208   FCB 101,32,116,104,101,32,114,97,119,32,112,111,119,101,114,32
18E9  6F 66 20 31 30 20 + 1209   FCB 111,102,32,49,48,32,77,73,80,83,46,0,83,116,97,114
18F9  20 66 69 65 6C 64 + 1210   FCB 32,102,105,101,108,100,0,42,0,80,108,117,114,97,108,63
1909  00 46 69 6E 65 20 + 1211   FCB 0,70,105,110,101,32,40,73,32,104,97,100,32,116,111,32
1919  66 69 78 20 61 20 + 1212   FCB 102,105,120,32,97,32,98,117,103,32,105,110,32,116,104,101
1929  20 52 54 4C 2E 2E + 1213   FCB 32,82,84,76,46,46,46,41,0,76,111,111,107,32,73,39
1939  6D 20 6E 6F 74 20 + 1214   FCB 109,32,110,111,116,32,103,111,111,100,32,97,116,32,100,101
1949  6D 6F 73 2E 2E 2E + 1215   FCB 109,111,115,46,46,46,0,68,101,109,111,32,98,121,32,84
1959  6F 6D 20 53 74 20 + 1216   FCB 111,109,32,83,116,32,68,101,110,105,115,0,82,84,76,32
1969  62 79 20 54 6F 6D + 1217   FCB 98,121,32,84,111,109,32,83,116,32,68,101,110,105,115,0
1979  56 69 64 65 6F 67 + 1218   FCB 86,105,100,101,111,103,114,97,112,104,121,32,98,121,32,84
DUNFIELD CFLEA ASSEMBLER: DEMO                                         PAGE: 22

1989  6F 6D 20 53 74 20 + 1219   FCB 111,109,32,83,116,32,68,101,110,105,115,0,69,100,105,116
1999  69 6E 67 20 62 79 + 1220   FCB 105,110,103,32,98,121,32,84,111,109,32,83,116,32,68,101
19A9  6E 69 73 00 45 78 + 1221   FCB 110,105,115,0,69,120,101,99,117,116,105,118,101,32,80,114
19B9  6F 64 75 63 65 72 + 1222   FCB 111,100,117,99,101,114,58,32,76,97,114,114,121,32,68,97
19C9  76 69 64 00 20 20 + 1223   FCB 118,105,100,0,32,32,32,32,32,32,32,32,32,32,32,32
19D9  20 20 20 20 20 20 + 1224   FCB 32,32,32,32,32,32,32,32,32,32,32,32,97,110,100,0
19E9  20 20 20 20 20 20 + 1225   FCB 32,32,32,32,32,32,32,32,32,32,32,32,32,32,32,32
19F9  20 20 20 20 54 6F + 1226   FCB 32,32,32,32,84,111,109,32,83,116,32,68,101,110,105,115
1A09  00 54 68 61 74 2E + 1227   FCB 0,84,104,97,116,46,46,46,0,84,72,65,84,32,105,115
1A19  20 68 6F 77 20 79 + 1228   FCB 32,104,111,119,32,121,111,117,32,65,84,84,69,78,84,73
1A29  4F 4E 20 57 48 4F + 1229   FCB 79,78,32,87,72,79,82,69,33,33,33,33,32,58,45,41
1A39  00                  1230   FCB 0
1A3A                      1231  *
1A3A                      1232  * Formatted print to a string: sprintf(string, format, args ...)
1A3A                      1233  *
1A3A  38 02               1234  sprintf	MULB	#2		Word entries
1A3C  9C 00               1235  	LEAI	,S		Point to stack
1A3E  E8                  1236  	ADAI			Point to argument
1A3F  02                  1237  	LD	I		Get output pointer
1A40  A1 00 00            1238  	ST	?temp		Save for later
1A43  E7                  1239  	TIA			Point to it
1A44  E5                  1240  	DEC			Backup
1A45  E5                  1241  	DEC			Backup
1A46  E6                  1242  	TAI			Back to index
1A47  00 50 1A            1243  	LD	#?AC1		Output functino
1A4A  D8 AF 1A            1244  	CALL	format		Format it
1A4D  E0                  1245  	CLR			Get zero
1A4E  D3 02               1246  	SJMP	?AC2		And write it
1A50  04 02               1247  ?AC1	LD	2,S		Get character
1A52  91 00 00            1248  ?AC2	LDI	?temp		Get output pointer
1A55  AA                  1249  	STB	I		Write to memory
1A56  9B 01               1250  	LEAI	1,I		Advance
1A58  B1 00 00            1251  	STI	?temp		Resave
1A5B  D9                  1252  	RET
1A5C                      1253  *50000 22/5/2026
1A5C                      1254  *
1A5C                      1255  * Set memory to a specified value: memset(block, value, size)
1A5C                      1256  *
1A5C  94 06               1257  memset	LDI	6,S		Get pointer
1A5E  04 02               1258  ?AD1	LD	2,S		Get size
1A60  D4 21               1259  	SJZ	?AD2		Zero, exit
1A62  E5                  1260  	DEC			Backup
1A63  A4 02               1261  	ST	2,S		Resave
1A65  04 04               1262  	LD	4,S		Get value
1A67  AA                  1263  	STB	I		Write to memory
1A68  9B 01               1264  	LEAI	1,I		Advance
1A6A  D3 F2               1265  	SJMP	?AD1		And proceed
1A6C                      1266  *
1A6C                      1267  * Copy memory: memcpy(dest, source, size)
1A6C                      1268  *
1A6C  04 02               1269  memcpy	LD	2,S		Get size
1A6E  D4 13               1270  	SJZ	?AD2		Zero, exit
1A70  E5                  1271  	DEC			Reduce count
1A71  A4 02               1272  	ST	2,S		Resave
1A73  94 04               1273  	LDI	4,S		Get source
1A75  0A                  1274  	LDB	I		Get byte
1A76  9B 01               1275  	LEAI	1,I		Advance
1A78  B4 04               1276  	STI	4,S		Resave
DUNFIELD CFLEA ASSEMBLER: DEMO                                         PAGE: 23

1A7A  94 06               1277  	LDI	6,S		Get dest
1A7C  AA                  1278  	STB	I		Write byte
1A7D  9B 01               1279  	LEAI	1,I		Advance
1A7F  B4 06               1280  	STI	6,S		Resave
1A81  D3 E9               1281  	SJMP	memcpy		And proceed
1A83  D9                  1282  ?AD2	RET
1A84                      1283  *50000 22/5/2026
1A84                      1284  *
1A84                      1285  * Concatinate one string to another: strcat(dest, source)
1A84                      1286  *
1A84  94 04               1287  strcat	LDI	4,S		Get dest ptr
1A86  0A                  1288  ?AE1	LDB	I		Get byte from index
1A87  D1 8E 1A            1289  	JZ	?AE2		End of string, copy
1A8A  9B 01               1290  	LEAI	1,I		Advance pointer
1A8C  D3 F8               1291  	SJMP	?AE1		And proceed
1A8E  B4 04               1292  ?AE2	STI	4,S		Resave pointer
1A90                      1293  *
1A90                      1294  * Copy strings: strcpy(dest, source)
1A90                      1295  *
1A90  94 02               1296  strcpy	LDI	2,S		Get source ptr
1A92  0A                  1297  	LDB	I		Get byte from source
1A93  9B 01               1298  	LEAI	1,I		Advance source ptr
1A95  B4 02               1299  	STI	2,S		Resave
1A97  94 04               1300  	LDI	4,S		Get dest ptr
1A99  AA                  1301  	STB	I		Write to dest
1A9A  9B 01               1302  	LEAI	1,I		Advance dest ptr
1A9C  B4 04               1303  	STI	4,S		Resave
1A9E  D5 F0               1304  	SJNZ	strcpy		Do them all
1AA0  D9                  1305  	RET
1AA1                      1306  *50000 22/5/2026
1AA1                      1307  *
1AA1                      1308  * Determine length of string: strlen(string)
1AA1                      1309  *
1AA1  94 02               1310  strlen	LDI	2,S		; Get string ptr
1AA3  0A                  1311  ?AF1	LDB	I		; Get byte from string
1AA4  D1 AB 1A            1312  	JZ	?AF2		; We are at end
1AA7  9B 01               1313  	LEAI	1,I		; Skip to next
1AA9  D3 F8               1314  	SJMP	?AF1		; And proceed
1AAB  E7                  1315  ?AF2	TIA			; Get pointer
1AAC  24 02               1316  	SUB	2,S		; Compute actual length
1AAE  D9                  1317  	RET
1AAF                      1318  *50000 22/5/2026
1AAF                      1319  *
1AAF                      1320  * Format to "printf" output: A=Output Function, I = Argument List
1AAF                      1321  *
1AAF  DC                  1322  format	PUSHA			Save output function pointer
1AB0  DD                  1323  	PUSHI			Save argument pointer
1AB1  DA 0A               1324  	ALLOC	10		Save  flag variable
1AB3                      1325  * Local variable & argument offsets
000C                      1326  ?AG1	EQU	12		Pointer to output function
000A                      1327  ?AG2	EQU	10		Pointer to argument list
0004                      1328  ?AG3	EQU	4		Buffer for number conversions (6 bytes)
0002                      1329  ?AG4	EQU	2		Temporary locations
0001                      1330  ?AG5	EQU	1		Character count
0000                      1331  ?AG6	EQU	0		Formatting controls
1AB3                      1332  *
1AB3  94 0A               1333  	LDI	?AG2,S		Get arg pointer
1AB5  92                  1334  	LDI	I		Get format string
DUNFIELD CFLEA ASSEMBLER: DEMO                                         PAGE: 24

1AB6  0A                  1335  ?AG7	LDB	I		Get character from string
1AB7  D4 12               1336  	SJZ	?AG8		Exit if end
1AB9  88 25               1337  	CMPB	#'%'		Format character
1ABB  D5 12               1338  	SJNZ	?AG10		Yes, handle it
1ABD  0A                  1339  	LDB	I		Get char back
1ABE  9B 01               1340  	LEAI	1,I		Advance pointer
1AC0  DD                  1341  	PUSHI			Save Index
1AC1  DC                  1342  	PUSHA			Pass character
1AC2  04 10               1343  	LD	4+?AG1,S		Get output function
1AC4  D8 CE 1A            1344  	CALL	?AG9		Output the character
1AC7  05                  1345  	LD	S+		Clean stack
1AC8  95                  1346  	LDI	S+		Get Index back
1AC9  D3 EB               1347  	SJMP	?AG7		And proceed
1ACB  DB 0E               1348  ?AG8	FREE	14		Release stack
1ACD  D9                  1349  	RET
1ACE                      1350  * Call output function in A
1ACE  D6                  1351  ?AG9	IJMP			Call function
1ACF                      1352  * Format character located
1ACF  9B 01               1353  ?AG10	LEAI	1,I		Skip to next
1AD1  E0                  1354  	CLR			Begin with zero
1AD2  A4 02               1355  	ST	?AG4,S		Save for later
1AD4                      1356  * Check for leading '-' = Left justify
1AD4  AC 00               1357  	STB	?AG6,S		Init. flag
1AD6  AC 01               1358  	STB	?AG5,S		Init. count
1AD8  0A                  1359  	LDB	I		Get char
1AD9  88 2D               1360  	CMPB	#'-'		Minus?
1ADB  D4 06               1361  	SJZ	?AG11		No, try next
1ADD  9B 01               1362  	LEAI	1,I		Advance pointer
1ADF  08 80               1363  	LDB	#%10000000	Set justify flag
1AE1  AC 00               1364  	STB	?AG6,S		Resave
1AE3                      1365  * Check for leading '0' = Zero fill
1AE3  0A                  1366  ?AG11	LDB	I		Get char back
1AE4  88 30               1367  	CMPB	#'0'		Zero fill?
1AE6  D4 08               1368  	SJZ	?AG12		No, try next
1AE8  9B 01               1369  	LEAI	1,I		Advance
1AEA  0C 00               1370  	LDB	?AG6,S		Get value
1AEC  68 40               1371  	ORB	#%01000000	Set zero fill flag
1AEE  AC 00               1372  	STB	?AG6,S		Resave
1AF0                      1373  * Get field width
1AF0  0A                  1374  ?AG12	LDB	I		Get character
1AF1  28 30               1375  	SUBB	#'0'		Convert to binary
1AF3  DC                  1376  	PUSHA			Save
1AF4  88 0A               1377  	CMPB	#10		In range?
1AF6  CC                  1378  	ULT			Must be less than
1AF7  D4 0B               1379  	SJZ	?AG13		Nope
1AF9  9B 01               1380  	LEAI	1,I		Skip digit
1AFB  04 04               1381  	LD	2+?AG4,S		Get old value
1AFD  38 0A               1382  	MULB	#10		x10
1AFF  15                  1383  	ADD	S+		Include new
1B00  A4 02               1384  	ST	?AG4,S		Resave
1B02  D3 EC               1385  	SJMP	?AG12		Do them all
1B04  05                  1386  ?AG13	LD	S+		Clear stack
1B05  04 02               1387  	LD	?AG4,S		Get value
1B07  6C 00               1388  	ORB	?AG6,S		Include previous flags
1B09  AC 00               1389  	STB	?AG6,S		Resave
1B0B                      1390  * Lookup character & dispatch handler
1B0B  DD                  1391  	PUSHI			Save format pointer
1B0C  04 0C               1392  	LD	2+?AG2,S		Get argptr
DUNFIELD CFLEA ASSEMBLER: DEMO                                         PAGE: 25

1B0E  E5                  1393  	DEC			Backup
1B0F  E5                  1394  	DEC			Backup
1B10  A4 0C               1395  	ST	2+?AG2,S		Resave
1B12  E6                  1396  	TAI			Address
1B13  02                  1397  	LD	I		Get value
1B14  A4 04               1398  	ST	2+?AG4,S		Resave
1B16  0F                  1399  	LDB	[S]		Get next character
1B17  99 1B 1B            1400  	LEAI	?AG14		Point to table
1B1A  D7                  1401  	SWITCH			Lookup & execute
1B1B  37 1B 6F 00         1402  ?AG14	FDB	?AG15,'o'		Octal number
1B1F  3B 1B 64 00         1403  	FDB	?AG16,'d'		Decimal number
1B23  5B 1B 75 00         1404  	FDB	?AG17,'u'		Unsigned number
1B27  5F 1B 78 00         1405  	FDB	?AG18,'x'		Hexidecimal number
1B2B  B5 1B 63 00         1406  	FDB	?AG26,'c'		Character output
1B2F  C0 1B 73 00         1407  	FDB	?AG28,'s'		String output
1B33  00 00 B7 1B         1408  	FDB	0,?AG27		Ignore it
1B37                      1409  * '%o' - Octal number
1B37  08 08               1410  ?AG15	LDB	#8		Base 8
1B39  D3 26               1411  	SJMP	?AG19		Do number
1B3B                      1412  * '%d' - signed Decimal number
1B3B  04 04               1413  ?AG16	LD	2+?AG4,S		Get value
1B3D  50 00 80            1414  	AND	#$8000		Negatve?
1B40  D4 19               1415  	SJZ	?AG17		Nothing special
1B42  08 2D               1416  	LDB	#'-'		Minus size
1B44  DC                  1417  	PUSHA			Pass to function
1B45  04 10               1418  	LD	4+?AG1,S		Get output function
1B47  D8 CE 1A            1419  	CALL	?AG9		Call function
1B4A  05                  1420  	LD	S+		Clean stack
1B4B  04 04               1421  	LD	2+?AG4,S		Get value
1B4D  E2                  1422  	NEG			Negate
1B4E  A4 04               1423  	ST	2+?AG4,S		And prcoeed
1B50  0C 02               1424  	LDB	2+?AG6,S		Get length
1B52  58 7F               1425  	ANDB	#%001111111	Free format?
1B54  D4 05               1426  	SJZ	?AG17		Yes, ignore
1B56  0C 02               1427  	LDB	2+?AG6,S		Get value back
1B58  E5                  1428  	DEC			Adjust for '-'
1B59  AC 02               1429  	STB	2+?AG6,S		Resave
1B5B                      1430  * '%u' - Unsigned decimal number
1B5B  08 0A               1431  ?AG17	LDB	#10		Base 10 output
1B5D  D3 02               1432  	SJMP	?AG19		Do number
1B5F                      1433  * '%x' - heXidecimal number
1B5F  08 10               1434  ?AG18	LDB	#16		Base 16 output
1B61                      1435  * Output a number in the specified number base
1B61  AC 06               1436  ?AG19	STB	2+?AG3,S		Save number base
1B63  9C 0C               1437  	LEAI	6+2+?AG3,S	Point to END of buffer
1B65  E7                  1438  ?AG20	TIA			Get index
1B66  E5                  1439  	DEC			Backup
1B67  E6                  1440  	TAI			Set index
1B68  0C 03               1441  	LDB	2+?AG5,S		Get count
1B6A  E4                  1442  	INC			Advance
1B6B  AC 03               1443  	STB	2+?AG5,S		Resave
1B6D  04 04               1444  	LD	2+?AG4,S		Get value
1B6F  4C 06               1445  	DIVB	2+?AG3,S		Divide by 10
1B71  DC                  1446  	PUSHA			Save quotient
1B72  E9                  1447  	ALT			Get remainder
1B73  18 30               1448  	ADDB	#'0'		Convert to ASCII
1B75  AA                  1449  	STB	I		Write to stack
1B76  88 39               1450  	CMPB	#'9'		Is it HEX?
DUNFIELD CFLEA ASSEMBLER: DEMO                                         PAGE: 26

1B78  CE                  1451  	UGT			Complete test
1B79  D4 04               1452  	SJZ	?AG21		Yes it is
1B7B  0A                  1453  	LDB	I		Get char back
1B7C  18 07               1454  	ADDB	#7		Adjust
1B7E  AA                  1455  	STB	I		Resave char
1B7F  05                  1456  ?AG21	LD	S+		Get quotient
1B80  A4 04               1457  	ST	2+?AG4,S		Save new value
1B82  D5 E1               1458  	SJNZ	?AG20		Do them all
1B84                      1459  * At this point, I = pointer, ?5=Length
1B84  0C 03               1460  ?AG22	LDB	2+?AG5,S		Get count
1B86  AC 05               1461  	STB	3+?AG4,S		Set extra count
1B88  0C 02               1462  	LDB	2+?AG6,S		Get flag
1B8A  58 80               1463  	ANDB	#%10000000	Left justify?
1B8C  D5 03               1464  	SJNZ	?AG23		Yes, don't fill
1B8E  D8 D2 1B            1465  	CALL	?AG31		Do any pre-output
1B91  0C 05               1466  ?AG23	LDB	3+?AG4,S		Get count
1B93  D4 11               1467  	SJZ	?AG24		All done, exit
1B95  E5                  1468  	DEC			Reduce count
1B96  AC 05               1469  	STB	3+?AG4,S		Resave
1B98  0A                  1470  	LDB	I		Get character from string
1B99  9B 01               1471  	LEAI	1,I		Advance
1B9B  DD                  1472  	PUSHI			Save it
1B9C  DC                  1473  	PUSHA			Pass character
1B9D  04 12               1474  	LD	6+?AG1,S		Get output function
1B9F  D8 CE 1A            1475  	CALL	?AG9		Output character
1BA2  05                  1476  	LD	S+		Clean stack
1BA3  95                  1477  	LDI	S+		Restore I
1BA4  D3 EB               1478  	SJMP	?AG23		Go again
1BA6  0C 02               1479  ?AG24	LDB	2+?AG6,S		Get flag
1BA8  58 80               1480  	ANDB	#%10000000	Left justify
1BAA  D4 03               1481  	SJZ	?AG25		No, skip it
1BAC  D8 D2 1B            1482  	CALL	?AG31		Post justify
1BAF  95                  1483  ?AG25	LDI	S+		Restore format string
1BB0  9B 01               1484  	LEAI	1,I		Advance pointer
1BB2  D0 B6 1A            1485  	JMP	?AG7		And proceed
1BB5                      1486  * '%c' - output character
1BB5  0C 04               1487  ?AG26	LDB	2+?AG4,S		Get character
1BB7  9C 06               1488  ?AG27	LEAI	2+?AG3,S		Point to buffer
1BB9  AA                  1489  	STB	I		Save it
1BBA  08 01               1490  	LDB	#1		Get 1
1BBC  AC 03               1491  	STB	2+?AG5,S
1BBE  D3 C4               1492  	SJMP	?AG22
1BC0                      1493  * '%s' - output string
1BC0  94 04               1494  ?AG28	LDI	2+?AG4,S		Get string pointer
1BC2  0A                  1495  ?AG29	LDB	I		Get character
1BC3  D4 09               1496  	SJZ	?AG30		End of string
1BC5  9B 01               1497  	LEAI	1,I		Skip to next
1BC7  0C 03               1498  	LDB	2+?AG5,S		Get count
1BC9  E4                  1499  	INC			Advance
1BCA  AC 03               1500  	STB	2+?AG5,S		Resave count
1BCC  D3 F4               1501  	SJMP	?AG29		And proceed
1BCE  94 04               1502  ?AG30	LDI	2+?AG4,S		Get pointer back
1BD0  D3 B2               1503  	SJMP	?AG22		And output
1BD2                      1504  * Perform pre-output justify
1BD2  0C 04               1505  ?AG31	LDB	4+?AG6,S		Get flag
1BD4  58 3F               1506  	ANDB	#%00111111	Save length only
1BD6  D4 23               1507  	SJZ	?AG35		No justify
1BD8  AC 06               1508  	STB	4+?AG4,S		Save for later
DUNFIELD CFLEA ASSEMBLER: DEMO                                         PAGE: 27

1BDA  DD                  1509  	PUSHI			Save index
1BDB  0C 07               1510  ?AG32	LDB	6+?AG5,S		Get count
1BDD  8C 08               1511  	CMPB	6+?AG4,S		Are we over
1BDF  CF                  1512  	UGE			Complete test
1BE0  D5 18               1513  	SJNZ	?AG34		Yes, exit
1BE2  0C 06               1514  	LDB	6+?AG6,S		Get flag
1BE4  58 40               1515  	ANDB	#%01000000	Zero fill?
1BE6  D4 02               1516  	SJZ	?AG33		No, use ' '
1BE8  08 10               1517  	LDB	#'0'-' '	Get value
1BEA  18 20               1518  ?AG33	ADDB	#' '		Convert to char
1BEC  DC                  1519  	PUSHA			Pass character
1BED  04 14               1520  	LD	8+?AG1,S		Get output function
1BEF  D8 CE 1A            1521  	CALL	?AG9		Output character
1BF2  05                  1522  	LD	S+		Clean stack
1BF3  0C 08               1523  	LDB	6+?AG4,S		Get remaining width
1BF5  E5                  1524  	DEC			Reduce
1BF6  AC 08               1525  	STB	6+?AG4,S		Resave
1BF8  D3 E1               1526  	SJMP	?AG32		Do next
1BFA  95                  1527  ?AG34	LDI	S+		Restore index
1BFB  D9                  1528  ?AG35	RET
1BFC                      1529  *50000 22/5/2026
1BFC                      1530  *
1BFC                      1531  * DDS MICRO-C C-FLEA Runtime Library - Middle file
1BFC                      1532  *
1BFC                      1533  * Copyright 1991-2005 Dave Dunfield
1BFC                      1534  * All rights reserved.
1BFC                      1535  *
0000                      1536  	ORG	$0000		Start RAM based variables here
0000                      1537  ?temp	RMB	2		Temporary location used by compiler
0002                      1538  *50000 22/5/2026
0002                      1539  stars RMB 1120
0462                      1540  *
0462                      1541  * DDS MICRO-C C-FLEA Runtime Library - Suffix file
0462                      1542  *
0462                      1543  * Copyright 1991-2005 Dave Dunfield
0462                      1544  * All rights reserved.
0462                      1545  *
0462                      1546  ?heap	EQU	*		Beginning of unused RAM
0462                      1547  *50000 22/5/2026
DUNFIELD CFLEA ASSEMBLER: DEMO                                         PAGE: 28

SYMBOL TABLE:

?AB0    -1809   ?AB1    -1017   ?AB10   -111E   ?AB11   -112E   ?AB12   -116B
?AB13   -113F   ?AB14   -1138   ?AB15   -116B   ?AB16   -117F   ?AB17   -11BA
?AB18   -1190   ?AB19   -1189   ?AB2    -1043   ?AB20   -11D0   ?AB21   -1200
?AB22   -11E1   ?AB23   -11DA   ?AB24   -125A   ?AB25   -1294   ?AB26   -126B
?AB27   -1264   ?AB28   -1302   ?AB29   -1317   ?AB3    -1035   ?AB30   -1510
?AB31   -1328   ?AB32   -1321   ?AB33   -132B   ?AB34   -14EB   ?AB35   -133C
?AB36   -1335   ?AB37   -13AE   ?AB38   -14B3   ?AB39   -13D3   ?AB4    -1040
?AB40   -140B   ?AB41   -1401   ?AB42   -140B   ?AB43   -1432   ?AB44   -1470
?AB45   -1464   ?AB46   -1470   ?AB47   -14B3   ?AB48   -14A6   ?AB49   -14A6
?AB5    -1043   ?AB50   -14A6   ?AB51   -14E8   ?AB52   -1502   ?AB53   -1510
?AB54   -152D   ?AB55   -172A   ?AB56   -153F   ?AB57   -1538   ?AB58   -1542
?AB59   -171C   ?AB6    -10BF   ?AB60   -1553   ?AB61   -154C   ?AB62   -15D7
?AB63   -16DC   ?AB64   -15FC   ?AB65   -1634   ?AB66   -162A   ?AB67   -1634
?AB68   -165B   ?AB69   -1699   ?AB7    -10D7   ?AB70   -168D   ?AB71   -1699
?AB72   -16DC   ?AB73   -16CF   ?AB74   -16CF   ?AB75   -16CF   ?AB76   -1719
?AB8    -10E6   ?AB9    -1100   ?AC1    -1A50   ?AC2    -1A52   ?AD1    -1A5E
?AD2    -1A83   ?AE1    -1A86   ?AE2    -1A8E   ?AF1    -1AA3   ?AF2    -1AAB
?AG1    -000C   ?AG10   -1ACF   ?AG11   -1AE3   ?AG12   -1AF0   ?AG13   -1B04
?AG14   -1B1B   ?AG15   -1B37   ?AG16   -1B3B   ?AG17   -1B5B   ?AG18   -1B5F
?AG19   -1B61   ?AG2    -000A   ?AG20   -1B65   ?AG21   -1B7F   ?AG22   -1B84
?AG23   -1B91   ?AG24   -1BA6   ?AG25   -1BAF   ?AG26   -1BB5   ?AG27   -1BB7
?AG28   -1BC0   ?AG29   -1BC2   ?AG3    -0004   ?AG30   -1BCE   ?AG31   -1BD2
?AG32   -1BDB   ?AG33   -1BEA   ?AG34   -1BFA   ?AG35   -1BFB   ?AG4    -0002
?AG5    -0001   ?AG6    -0000   ?AG7    -1AB6   ?AG8    -1ACB   ?AG9    -1ACE
?heap   -0462   ?temp   -0000   clrscr  -106C   exit    -100B   format  -1AAF
hline   -10B2   main    -111F   memcpy  -1A6C   memset  -1A5C   plotxy  -1102
putscentered            -1093   putsxy  -107C   randy   -1110
read_video_stat         -1049   rng     -1112   sprintf -1A3A   stars   -0002
strcat  -1A84   strcpy  -1A90   strlen  -1AA1   vid_mode-1044   vline   -10D9
wait_active_top         -1064   wait_active_vid         -1064   wait_hsync              -105C
wait_hsync_top          -105C   wait_ms -100D   wait_ms_top             -100F
wait_nvsync             -1054   wait_nvsync_top         -1054   wait_vsync              -104C
wait_vsync_top          -104C   wait_xms-1017
