DUNFIELD CFLEA ASSEMBLER: GPIO                                         PAGE: 1

0000                         1  *#cpu CFLEA
0000                         2  *
0000                         3  * DDS MICRO-C C-FLEA Runtime Library - Prefix file
0000                         4  *
0000                         5  * Copyright 1991-2005 Dave Dunfield
0000                         6  * All rights reserved.
0000                         7  *
1000                         8  	ORG	$1000		Place code in memory here
1000                         9  * Begin execution here... Setup stack, zero heap & call main()
1000  00 00 10              10  	LD	#*		Stack below here
1003  DE                    11  	TAS			Set up stack
1004  E0                    12  	CLR			Get zero
1005  A9 3A 02              13  	STB	?heap		Zero heap
1008  D8 45 1A              14  	CALL	main		Run main program
100B                        15  * Most embedded programs will never return or exit, however if they
100B                        16  * do, this section of code should do something appropriate, either
100B                        17  * restart the program, or stop the machine. For this system, we will
100B                        18  * simply freeze by entering an infinite loop.
100B  D3 FE                 19  exit	SJMP	*		Loop forever
100D                        20  *50000 22/5/2026
100D                        21  c_clrscr EQU *
100D  00 00 F8              22   LD #-2048
1010  DC                    23   PUSHA
1011  E0                    24   CLR
1012  DC                    25   PUSHA
1013  00 00 08              26   LD #2048
1016  DC                    27   PUSHA
1017  D8 A2 1F              28   CALL memset
101A  DB 06                 29   FREE 6
101C  D9                    30   RET
101D                        31  c_scroll EQU *
101D  00 00 F8              32   LD #-2048
1020  DC                    33   PUSHA
1021  00 50 F8              34   LD #-1968
1024  DC                    35   PUSHA
1025  00 80 07              36   LD #1920
1028  DC                    37   PUSHA
1029  D8 B2 1F              38   CALL memcpy
102C  DB 06                 39   FREE 6
102E  00 80 FF              40   LD #-128
1031  DC                    41   PUSHA
1032  08 20                 42   LDB #32
1034  DC                    43   PUSHA
1035  08 50                 44   LDB #80
1037  DC                    45   PUSHA
1038  D8 A2 1F              46   CALL memset
103B  DB 06                 47   FREE 6
103D  D9                    48   RET
103E                        49  c_rewind EQU *
103E  90 FE FF              50   LDI #-2
1041  02                    51   LD I
1042  88 00                 52   CMPB #0
1044  D1 5F 10              53   JZ ?AB1
1047  90 FC FF              54   LDI #-4
104A  02                    55   LD I
104B  88 00                 56   CMPB #0
104D  D2 5C 10              57   JNZ ?AB2
1050  90 FC FF              58   LDI #-4
DUNFIELD CFLEA ASSEMBLER: GPIO                                         PAGE: 2

1053  02                    59   LD I
1054  E5                    60   DEC
1055  A2                    61   ST I
1056  90 FE FF              62   LDI #-2
1059  08 4F                 63   LDB #79
105B  A2                    64   ST I
105C                        65  ?AB2 EQU *
105C  D0 65 10              66   JMP ?AB3
105F                        67  ?AB1 EQU *
105F  90 FE FF              68   LDI #-2
1062  02                    69   LD I
1063  E5                    70   DEC
1064  A2                    71   ST I
1065                        72  ?AB3 EQU *
1065  D9                    73   RET
1066                        74  c_gotoxy EQU *
1066  90 FE FF              75   LDI #-2
1069  04 04                 76   LD 4,S
106B  A2                    77   ST I
106C  90 FC FF              78   LDI #-4
106F  04 02                 79   LD 2,S
1071  A2                    80   ST I
1072  D9                    81   RET
1073                        82  c_putc EQU *
1073  0C 02                 83   LDB 2,S
1075  88 0A                 84   CMPB #10
1077  D1 82 10              85   JZ ?AB4
107A  90 FE FF              86   LDI #-2
107D  E0                    87   CLR
107E  A2                    88   ST I
107F  D0 A7 10              89   JMP ?AB5
1082                        90  ?AB4 EQU *
1082  90 FC FF              91   LDI #-4
1085  02                    92   LD I
1086  38 50                 93   MULB #80
1088  90 FE FF              94   LDI #-2
108B  12                    95   ADD I
108C  90 00 F8              96   LDI #-2048
108F  E8                    97   ADAI
1090  0C 02                 98   LDB 2,S
1092  AA                    99   STB I
1093  90 FE FF             100   LDI #-2
1096  02                   101   LD I
1097  E4                   102   INC
1098  A2                   103   ST I
1099  90 FE FF             104   LDI #-2
109C  02                   105   LD I
109D  88 50                106   CMPB #80
109F  D1 BF 10             107   JZ ?AB6
10A2  90 FE FF             108   LDI #-2
10A5  E0                   109   CLR
10A6  A2                   110   ST I
10A7                       111  ?AB5 EQU *
10A7  90 FC FF             112   LDI #-4
10AA  02                   113   LD I
10AB  E4                   114   INC
10AC  A2                   115   ST I
10AD  90 FC FF             116   LDI #-4
DUNFIELD CFLEA ASSEMBLER: GPIO                                         PAGE: 3

10B0  02                   117   LD I
10B1  88 19                118   CMPB #25
10B3  D1 BF 10             119   JZ ?AB7
10B6  D8 1D 10             120   CALL c_scroll
10B9  90 FC FF             121   LDI #-4
10BC  08 18                122   LDB #24
10BE  A2                   123   ST I
10BF                       124  ?AB7 EQU *
10BF                       125  ?AB6 EQU *
10BF  D9                   126   RET
10C0                       127  c_puts EQU *
10C0                       128  ?AB8 EQU *
10C0  94 02                129   LDI 2,S
10C2  0A                   130   LDB I
10C3  D1 D6 10             131   JZ ?AB9
10C6  04 02                132   LD 2,S
10C8  E6                   133   TAI ;
10C9  E4                   134   INC
10CA  A4 02                135   ST 2,S
10CC  0A                   136   LDB I
10CD  DC                   137   PUSHA
10CE  D8 73 10             138   CALL c_putc
10D1  DB 02                139   FREE 2
10D3  D0 C0 10             140   JMP ?AB8
10D6                       141  ?AB9 EQU *
10D6  D9                   142   RET
10D7                       143  c_serin EQU *
10D7  EB 00                144  		IN $00
10D9  D9                   145   RET
10DA  DA 02                146  c_getc ALLOC 2
10DC                       147  ?AB10 EQU *
10DC  D8 D7 10             148   CALL c_serin
10DF  A4 00                149   ST 0,S
10E1                       150  ?AB11 EQU *
10E1  04 00                151   LD 0,S
10E3  80 FF FF             152   CMP #-1
10E6  D2 DC 10             153   JNZ ?AB10
10E9                       154  ?AB12 EQU *
10E9  04 00                155   LD 0,S
10EB                       156  ?AB13 EQU *
10EB  95                   157   LDI S+
10EC  D9                   158   RET
10ED  DA 06                159  c_gets ALLOC 6
10EF  04 0A                160   LD 10,S
10F1  A4 00                161   ST 0,S
10F3  04 0A                162   LD 10,S
10F5  14 08                163   ADD 8,S
10F7  28 01                164   SUBB #1
10F9  A4 02                165   ST 2,S
10FB                       166  ?AB14 EQU *
10FB  D8 DA 10             167   CALL c_getc
10FE  A4 04                168   ST 4,S
1100  88 08                169   CMPB #8
1102  D1 22 11             170   JZ ?AB16
1105  04 0A                171   LD 10,S
1107  84 00                172   CMP 0,S
1109  D2 1F 11             173   JNZ ?AB17
110C  04 0A                174   LD 10,S
DUNFIELD CFLEA ASSEMBLER: GPIO                                         PAGE: 4

110E  E5                   175   DEC
110F  A4 0A                176   ST 10,S
1111  D8 3E 10             177   CALL c_rewind
1114  08 20                178   LDB #32
1116  DC                   179   PUSHA
1117  D8 73 10             180   CALL c_putc
111A  DB 02                181   FREE 2
111C  D8 3E 10             182   CALL c_rewind
111F                       183  ?AB17 EQU *
111F  D0 4E 11             184   JMP ?AB18
1122                       185  ?AB16 EQU *
1122  04 04                186   LD 4,S
1124  88 0A                187   CMPB #10
1126  D5 04                188   SJNZ ?AB20
1128  04 04                189   LD 4,S
112A  88 0D                190   CMPB #13
112C                       191  ?AB20 EQU *
112C  D1 36 11             192   JZ ?AB19
112F  94 0A                193   LDI 10,S
1131  E0                   194   CLR
1132  AA                   195   STB I
1133  D0 51 11             196   JMP ?AB21
1136                       197  ?AB19 EQU *
1136  04 0A                198   LD 10,S
1138  84 02                199   CMP 2,S
113A  D2 4E 11             200   JNZ ?AB23
113D  04 0A                201   LD 10,S
113F  E6                   202   TAI ;
1140  E4                   203   INC
1141  A4 0A                204   ST 10,S
1143  04 04                205   LD 4,S
1145  AA                   206   STB I
1146  04 04                207   LD 4,S
1148  DC                   208   PUSHA
1149  D8 73 10             209   CALL c_putc
114C  DB 02                210   FREE 2
114E                       211  ?AB23 EQU *
114E                       212  ?AB22 EQU *
114E                       213  ?AB18 EQU *
114E  D0 FB 10             214   JMP ?AB14
1151                       215  ?AB15 EQU *
1151                       216  ?AB21 EQU *
1151  DB 06                217   FREE 6
1153  D9                   218   RET
1154  DA 04                219  c_box ALLOC 4
1156  90 FA FF             220   LDI #-6
1159  DD                   221   PUSHI
115A  90 FE FF             222   LDI #-2
115D  02                   223   LD I
115E  A6                   224   ST [S+]
115F  90 F8 FF             225   LDI #-8
1162  DD                   226   PUSHI
1163  90 FC FF             227   LDI #-4
1166  02                   228   LD I
1167  A6                   229   ST [S+]
1168  04 0C                230   LD 12,S
116A  A4 00                231   ST 0,S
116C                       232  ?AB24 EQU *
DUNFIELD CFLEA ASSEMBLER: GPIO                                         PAGE: 5

116C  04 00                233   LD 0,S
116E  84 08                234   CMP 8,S
1170  CC                   235   ULT
1171  D5 0A                236   SJNZ ?AB26
1173  D0 AB 11             237   JMP ?AB25
1176                       238  ?AB27 EQU *
1176  04 00                239   LD 0,S
1178  E4                   240   INC
1179  A4 00                241   ST 0,S
117B  D3 EF                242   SJMP ?AB24
117D                       243  ?AB26 EQU *
117D  04 0A                244   LD 10,S
117F  A4 02                245   ST 2,S
1181                       246  ?AB28 EQU *
1181  04 02                247   LD 2,S
1183  84 06                248   CMP 6,S
1185  CC                   249   ULT
1186  D5 0A                250   SJNZ ?AB30
1188  D0 A8 11             251   JMP ?AB29
118B                       252  ?AB31 EQU *
118B  04 02                253   LD 2,S
118D  E4                   254   INC
118E  A4 02                255   ST 2,S
1190  D3 EF                256   SJMP ?AB28
1192                       257  ?AB30 EQU *
1192  04 00                258   LD 0,S
1194  DC                   259   PUSHA
1195  04 04                260   LD 4,S
1197  DC                   261   PUSHA
1198  D8 66 10             262   CALL c_gotoxy
119B  DB 04                263   FREE 4
119D  08 20                264   LDB #32
119F  DC                   265   PUSHA
11A0  D8 73 10             266   CALL c_putc
11A3  DB 02                267   FREE 2
11A5  D0 8B 11             268   JMP ?AB31
11A8                       269  ?AB29 EQU *
11A8  D0 76 11             270   JMP ?AB27
11AB                       271  ?AB25 EQU *
11AB  04 0C                272   LD 12,S
11AD  DC                   273   PUSHA ;
11AE  04 0C                274   LD 12,S
11B0  DC                   275   PUSHA
11B1  D8 66 10             276   CALL c_gotoxy
11B4  DB 04                277   FREE 4
11B6  08 C9                278   LDB #201
11B8  DC                   279   PUSHA
11B9  D8 73 10             280   CALL c_putc
11BC  DB 02                281   FREE 2
11BE  04 0C                282   LD 12,S
11C0  DC                   283   PUSHA
11C1  04 08                284   LD 8,S
11C3  DC                   285   PUSHA
11C4  D8 66 10             286   CALL c_gotoxy
11C7  DB 04                287   FREE 4
11C9  08 C8                288   LDB #200
11CB  DC                   289   PUSHA
11CC  D8 73 10             290   CALL c_putc
DUNFIELD CFLEA ASSEMBLER: GPIO                                         PAGE: 6

11CF  DB 02                291   FREE 2
11D1  04 08                292   LD 8,S
11D3  DC                   293   PUSHA
11D4  04 0C                294   LD 12,S
11D6  DC                   295   PUSHA
11D7  D8 66 10             296   CALL c_gotoxy
11DA  DB 04                297   FREE 4
11DC  08 BB                298   LDB #187
11DE  DC                   299   PUSHA
11DF  D8 73 10             300   CALL c_putc
11E2  DB 02                301   FREE 2
11E4  04 08                302   LD 8,S
11E6  DC                   303   PUSHA ;
11E7  04 08                304   LD 8,S
11E9  DC                   305   PUSHA
11EA  D8 66 10             306   CALL c_gotoxy
11ED  DB 04                307   FREE 4
11EF  08 BC                308   LDB #188
11F1  DC                   309   PUSHA
11F2  D8 73 10             310   CALL c_putc
11F5  DB 02                311   FREE 2
11F7  04 0C                312   LD 12,S
11F9  18 01                313   ADDB #1
11FB  A4 00                314   ST 0,S
11FD                       315  ?AB32 EQU *
11FD  04 00                316   LD 0,S
11FF  84 08                317   CMP 8,S
1201  CC                   318   ULT
1202  D5 0A                319   SJNZ ?AB34
1204  D0 37 12             320   JMP ?AB33
1207                       321  ?AB35 EQU *
1207  04 00                322   LD 0,S
1209  E4                   323   INC
120A  A4 00                324   ST 0,S
120C  D3 EF                325   SJMP ?AB32
120E                       326  ?AB34 EQU *
120E  04 00                327   LD 0,S
1210  DC                   328   PUSHA
1211  04 0C                329   LD 12,S
1213  DC                   330   PUSHA
1214  D8 66 10             331   CALL c_gotoxy
1217  DB 04                332   FREE 4
1219  08 CD                333   LDB #205
121B  DC                   334   PUSHA
121C  D8 73 10             335   CALL c_putc
121F  DB 02                336   FREE 2
1221  04 00                337   LD 0,S
1223  DC                   338   PUSHA
1224  04 08                339   LD 8,S
1226  DC                   340   PUSHA
1227  D8 66 10             341   CALL c_gotoxy
122A  DB 04                342   FREE 4
122C  08 CD                343   LDB #205
122E  DC                   344   PUSHA
122F  D8 73 10             345   CALL c_putc
1232  DB 02                346   FREE 2
1234  D0 07 12             347   JMP ?AB35
1237                       348  ?AB33 EQU *
DUNFIELD CFLEA ASSEMBLER: GPIO                                         PAGE: 7

1237  04 0A                349   LD 10,S
1239  18 01                350   ADDB #1
123B  A4 02                351   ST 2,S
123D                       352  ?AB36 EQU *
123D  04 02                353   LD 2,S
123F  84 06                354   CMP 6,S
1241  CC                   355   ULT
1242  D5 0A                356   SJNZ ?AB38
1244  D0 77 12             357   JMP ?AB37
1247                       358  ?AB39 EQU *
1247  04 02                359   LD 2,S
1249  E4                   360   INC
124A  A4 02                361   ST 2,S
124C  D3 EF                362   SJMP ?AB36
124E                       363  ?AB38 EQU *
124E  04 0C                364   LD 12,S
1250  DC                   365   PUSHA
1251  04 04                366   LD 4,S
1253  DC                   367   PUSHA
1254  D8 66 10             368   CALL c_gotoxy
1257  DB 04                369   FREE 4
1259  08 BA                370   LDB #186
125B  DC                   371   PUSHA
125C  D8 73 10             372   CALL c_putc
125F  DB 02                373   FREE 2
1261  04 08                374   LD 8,S
1263  DC                   375   PUSHA
1264  04 04                376   LD 4,S
1266  DC                   377   PUSHA
1267  D8 66 10             378   CALL c_gotoxy
126A  DB 04                379   FREE 4
126C  08 BA                380   LDB #186
126E  DC                   381   PUSHA
126F  D8 73 10             382   CALL c_putc
1272  DB 02                383   FREE 2
1274  D0 47 12             384   JMP ?AB39
1277                       385  ?AB37 EQU *
1277  90 FE FF             386   LDI #-2
127A  DD                   387   PUSHI
127B  90 FA FF             388   LDI #-6
127E  02                   389   LD I
127F  A6                   390   ST [S+]
1280  90 FC FF             391   LDI #-4
1283  DD                   392   PUSHI
1284  90 F8 FF             393   LDI #-8
1287  02                   394   LD I
1288  A6                   395   ST [S+]
1289  DB 04                396   FREE 4
128B  D9                   397   RET
128C  DA 02                398  c_boxmsg ALLOC 2
128E  04 04                399   LD 4,S
1290  DC                   400   PUSHA
1291  D8 CA 1F             401   CALL strlen
1294  DB 02                402   FREE 2
1296  18 03                403   ADDB #3
1298  A4 00                404   ST 0,S
129A  04 08                405   LD 8,S
129C  DC                   406   PUSHA ;
DUNFIELD CFLEA ASSEMBLER: GPIO                                         PAGE: 8

129D  04 08                407   LD 8,S
129F  DC                   408   PUSHA
12A0  04 0C                409   LD 12,S
12A2  14 04                410   ADD 4,S
12A4  DC                   411   PUSHA
12A5  04 0C                412   LD 12,S
12A7  18 02                413   ADDB #2
12A9  DC                   414   PUSHA
12AA  D8 54 11             415   CALL c_box
12AD  DB 08                416   FREE 8
12AF  04 08                417   LD 8,S
12B1  18 02                418   ADDB #2
12B3  DC                   419   PUSHA
12B4  04 08                420   LD 8,S
12B6  18 01                421   ADDB #1
12B8  DC                   422   PUSHA
12B9  D8 66 10             423   CALL c_gotoxy
12BC  DB 04                424   FREE 4
12BE  04 04                425   LD 4,S
12C0  DC                   426   PUSHA
12C1  D8 C0 10             427   CALL c_puts
12C4  DB 02                428   FREE 2
12C6  90 FE FF             429   LDI #-2
12C9  DD                   430   PUSHI
12CA  90 FA FF             431   LDI #-6
12CD  02                   432   LD I
12CE  A6                   433   ST [S+]
12CF  90 FC FF             434   LDI #-4
12D2  DD                   435   PUSHI
12D3  90 F8 FF             436   LDI #-8
12D6  02                   437   LD I
12D7  A6                   438   ST [S+]
12D8  95                   439   LDI S+
12D9  D9                   440   RET
12DA  DA 02                441  c_boxquery ALLOC 2
12DC  04 08                442   LD 8,S
12DE  DC                   443   PUSHA
12DF  D8 CA 1F             444   CALL strlen
12E2  DB 02                445   FREE 2
12E4  18 03                446   ADDB #3
12E6  14 04                447   ADD 4,S
12E8  A4 00                448   ST 0,S
12EA  04 0C                449   LD 12,S
12EC  DC                   450   PUSHA ;
12ED  04 0C                451   LD 12,S
12EF  DC                   452   PUSHA
12F0  04 10                453   LD 16,S
12F2  14 04                454   ADD 4,S
12F4  DC                   455   PUSHA
12F5  04 10                456   LD 16,S
12F7  18 02                457   ADDB #2
12F9  DC                   458   PUSHA
12FA  D8 54 11             459   CALL c_box
12FD  DB 08                460   FREE 8
12FF  04 0C                461   LD 12,S
1301  18 02                462   ADDB #2
1303  DC                   463   PUSHA
1304  04 0C                464   LD 12,S
DUNFIELD CFLEA ASSEMBLER: GPIO                                         PAGE: 9

1306  18 01                465   ADDB #1
1308  DC                   466   PUSHA
1309  D8 66 10             467   CALL c_gotoxy
130C  DB 04                468   FREE 4
130E  04 08                469   LD 8,S
1310  DC                   470   PUSHA
1311  D8 C0 10             471   CALL c_puts
1314  DB 02                472   FREE 2
1316  04 06                473   LD 6,S
1318  DC                   474   PUSHA ;
1319  04 06                475   LD 6,S
131B  DC                   476   PUSHA
131C  D8 ED 10             477   CALL c_gets
131F  DB 04                478   FREE 4
1321  90 FE FF             479   LDI #-2
1324  DD                   480   PUSHI
1325  90 FA FF             481   LDI #-6
1328  02                   482   LD I
1329  A6                   483   ST [S+]
132A  90 FC FF             484   LDI #-4
132D  DD                   485   PUSHI
132E  90 F8 FF             486   LDI #-8
1331  02                   487   LD I
1332  A6                   488   ST [S+]
1333  95                   489   LDI S+
1334  D9                   490   RET
1335                       491  wait_us EQU *
1335  EA 11                492  		OUT $11			 * clear timer
1337                       493  wait_us_top
1337  EB 11                494  		IN $11			 * read timer
1339  84 02                495  		CMP 2,S			 * compare to us
133B  CC                   496  		ULT				 * unsigned less than 
133C  D5 F9                497  		SJNZ wait_us_top * wait till us passes
133E  D9                   498   RET
133F                       499  since_us EQU *
133F  EB 11                500  		IN $11			* read uS timer
1341  EA 11                501  		OUT $11			* clear the uS timer
1343  D9                   502   RET
1344                       503  wait_ms EQU *
1344                       504  ?AB40 EQU *
1344  04 02                505   LD 2,S
1346  E5                   506   DEC
1347  A4 02                507   ST 2,S
1349  E4                   508   INC
134A  D1 59 13             509   JZ ?AB41
134D  00 E8 03             510   LD #1000
1350  DC                   511   PUSHA
1351  D8 35 13             512   CALL wait_us
1354  DB 02                513   FREE 2
1356  D0 44 13             514   JMP ?AB40
1359                       515  ?AB41 EQU *
1359  D9                   516   RET
135A                       517  delay_loops EQU *
135A  EA 11                518  		OUT $11					* clear 1us timer
135C  04 02                519  		LD 2,S					* load x
135E                       520  delay_loops_top EQU *
135E  E5                   521  		DEC
135F  D5 FD                522  		SJNZ delay_loops_top	* decrement and loop
DUNFIELD CFLEA ASSEMBLER: GPIO                                         PAGE: 10

1361  EB 11                523  		IN $11					* read 1us timer and return value
1363  D9                   524   RET
1364  DA 08                525  delay_calibrate ALLOC 8
1366  E0                   526   CLR
1367  A4 06                527   ST 6,S
1369  00 FF FF             528   LD #-1
136C  A4 04                529   ST 4,S
136E                       530  ?AB42 EQU *
136E  04 04                531   LD 4,S
1370  14 06                532   ADD 6,S
1372  B8 01                533   SHR #1
1374  A4 00                534   ST 0,S
1376  DC                   535   PUSHA
1377  D8 5A 13             536   CALL delay_loops
137A  DB 02                537   FREE 2
137C  A4 02                538   ST 2,S
137E  80 E8 03             539   CMP #1000
1381  CE                   540   UGT
1382  D1 8C 13             541   JZ ?AB45
1385  04 00                542   LD 0,S
1387  A4 04                543   ST 4,S
1389  D0 90 13             544   JMP ?AB46
138C                       545  ?AB45 EQU *
138C  04 00                546   LD 0,S
138E  A4 06                547   ST 6,S
1390                       548  ?AB46 EQU *
1390                       549  ?AB43 EQU *
1390  04 04                550   LD 4,S
1392  84 06                551   CMP 6,S
1394  D1 6E 13             552   JZ ?AB42
1397                       553  ?AB44 EQU *
1397  04 00                554   LD 0,S
1399                       555  ?AB47 EQU *
1399  DB 08                556   FREE 8
139B  D9                   557   RET
139C                       558  outport EQU *
139C  04 04                559   LD 4,S
139E  90 BE 13             560   LDI #?AB49
13A1  D7                   561   SWITCH
13A2                       562  ?AB50 EQU *
13A2  04 02                563  				LD 2,S
13A4  EA 01                564  				OUT $01
13A6  D0 D2 13             565   JMP ?AB48
13A9                       566  ?AB51 EQU *
13A9  04 02                567  				LD 2,S
13AB  EA 02                568  				OUT $02
13AD  D0 D2 13             569   JMP ?AB48
13B0                       570  ?AB52 EQU *
13B0  04 02                571  				LD 2,S
13B2  EA 03                572  				OUT $03
13B4  D0 D2 13             573   JMP ?AB48
13B7                       574  ?AB53 EQU *
13B7  04 02                575  				LD 2,S
13B9  EA 04                576  				OUT $04
13BB  D0 D2 13             577   JMP ?AB48
13BE                       578  ?AB49 EQU *
13BE  B7 13 03 00 B0 13 +  579   FDB ?AB53,3,?AB52,2,?AB51,1,?AB50,0,0,?AB48
13D2                       580  ?AB48 EQU *
DUNFIELD CFLEA ASSEMBLER: GPIO                                         PAGE: 11

13D2  D9                   581   RET
13D3                       582  dirport EQU *
13D3  04 04                583   LD 4,S
13D5  90 F5 13             584   LDI #?AB55
13D8  D7                   585   SWITCH
13D9                       586  ?AB56 EQU *
13D9  04 02                587  				LD 2,S
13DB  EA 05                588  				OUT $05
13DD  D0 09 14             589   JMP ?AB54
13E0                       590  ?AB57 EQU *
13E0  04 02                591  				LD 2,S
13E2  EA 06                592  				OUT $06
13E4  D0 09 14             593   JMP ?AB54
13E7                       594  ?AB58 EQU *
13E7  04 02                595  				LD 2,S
13E9  EA 07                596  				OUT $07
13EB  D0 09 14             597   JMP ?AB54
13EE                       598  ?AB59 EQU *
13EE  04 02                599  				LD 2,S
13F0  EA 08                600  				OUT $08
13F2  D0 09 14             601   JMP ?AB54
13F5                       602  ?AB55 EQU *
13F5  EE 13 03 00 E7 13 +  603   FDB ?AB59,3,?AB58,2,?AB57,1,?AB56,0,0,?AB54
1409                       604  ?AB54 EQU *
1409  D9                   605   RET
140A                       606  inport EQU *
140A  04 04                607   LD 4,S
140C  90 30 14             608   LDI #?AB61
140F  D7                   609   SWITCH
1410                       610  ?AB62 EQU *
1410  04 02                611  				LD 2,S
1412  EB 01                612  				IN $01
1414  D9                   613  				RET
1415  D0 44 14             614   JMP ?AB60
1418                       615  ?AB63 EQU *
1418  04 02                616  				LD 2,S
141A  EB 02                617  				IN $02
141C  D9                   618  				RET
141D  D0 44 14             619   JMP ?AB60
1420                       620  ?AB64 EQU *
1420  04 02                621  				LD 2,S
1422  EB 03                622  				IN $03
1424  D9                   623  				RET
1425  D0 44 14             624   JMP ?AB60
1428                       625  ?AB65 EQU *
1428  04 02                626  				LD 2,S
142A  EB 04                627  				IN $04
142C  D9                   628  				RET
142D  D0 44 14             629   JMP ?AB60
1430                       630  ?AB61 EQU *
1430  28 14 03 00 20 14 +  631   FDB ?AB65,3,?AB64,2,?AB63,1,?AB62,0,0,?AB60
1444                       632  ?AB60 EQU *
1444  D9                   633   RET
1445                       634  spi_setup EQU *
1445  04 0A                635   LD 10,S
1447  A1 12 00             636   ST spi_port
144A  08 01                637   LDB #1
144C  C4 08                638   SHL 8,S
DUNFIELD CFLEA ASSEMBLER: GPIO                                         PAGE: 12

144E  A1 02 00             639   ST spi_cs_mask
1451  08 01                640   LDB #1
1453  C4 06                641   SHL 6,S
1455  A1 04 00             642   ST spi_sck_mask
1458  08 01                643   LDB #1
145A  C4 04                644   SHL 4,S
145C  A1 06 00             645   ST spi_miso_mask
145F  08 01                646   LDB #1
1461  C4 02                647   SHL 2,S
1463  A1 08 00             648   ST spi_mosi_mask
1466  01 02 00             649   LD spi_cs_mask
1469  E1                   650   COM
146A  C0 08                651   SHL #8
146C  A1 0A 00             652   ST spi_cs_mask_ds
146F  01 04 00             653   LD spi_sck_mask
1472  E1                   654   COM
1473  C0 08                655   SHL #8
1475  A1 0C 00             656   ST spi_sck_mask_ds
1478  01 06 00             657   LD spi_miso_mask
147B  E1                   658   COM
147C  C0 08                659   SHL #8
147E  A1 0E 00             660   ST spi_miso_mask_d
1481  01 08 00             661   LD spi_mosi_mask
1484  E1                   662   COM
1485  C0 08                663   SHL #8
1487  A1 10 00             664   ST spi_mosi_mask_d
148A  04 0A                665   LD 10,S
148C  DC                   666   PUSHA
148D  01 02 00             667   LD spi_cs_mask
1490  61 04 00             668   OR spi_sck_mask
1493  61 08 00             669   OR spi_mosi_mask
1496  DC                   670   PUSHA
1497  D8 D3 13             671   CALL dirport
149A  DB 04                672   FREE 4
149C  04 0A                673   LD 10,S
149E  DC                   674   PUSHA
149F  01 0A 00             675   LD spi_cs_mask_ds
14A2  61 10 00             676   OR spi_mosi_mask_d
14A5  61 0C 00             677   OR spi_sck_mask_ds
14A8  61 0E 00             678   OR spi_miso_mask_d
14AB  61 02 00             679   OR spi_cs_mask
14AE  DC                   680   PUSHA
14AF  D8 9C 13             681   CALL outport
14B2  DB 04                682   FREE 4
14B4  D9                   683   RET
14B5                       684  spi_set_cs EQU *
14B5  01 12 00             685   LD spi_port
14B8  DC                   686   PUSHA
14B9  04 04                687   LD 4,S
14BB  D4 05                688   SJZ ?AB67
14BD  01 02 00             689   LD spi_cs_mask
14C0  D3 01                690   SJMP ?AB66
14C2                       691  ?AB67 EQU *
14C2  E0                   692   CLR
14C3                       693  ?AB66 EQU *
14C3  61 0A 00             694   OR spi_cs_mask_ds
14C6  DC                   695   PUSHA
14C7  D8 9C 13             696   CALL outport
DUNFIELD CFLEA ASSEMBLER: GPIO                                         PAGE: 13

14CA  DB 04                697   FREE 4
14CC  D9                   698   RET
14CD                       699  spi_set_sck EQU *
14CD  01 12 00             700   LD spi_port
14D0  DC                   701   PUSHA
14D1  04 04                702   LD 4,S
14D3  D4 05                703   SJZ ?AB69
14D5  01 04 00             704   LD spi_sck_mask
14D8  D3 01                705   SJMP ?AB68
14DA                       706  ?AB69 EQU *
14DA  E0                   707   CLR
14DB                       708  ?AB68 EQU *
14DB  61 0C 00             709   OR spi_sck_mask_ds
14DE  DC                   710   PUSHA
14DF  D8 9C 13             711   CALL outport
14E2  DB 04                712   FREE 4
14E4  D9                   713   RET
14E5  DA 04                714  spi_transfer ALLOC 4
14E7  E0                   715   CLR
14E8  A4 02                716   ST 2,S
14EA  E0                   717   CLR
14EB  A4 00                718   ST 0,S
14ED                       719  ?AB70 EQU *
14ED  04 00                720   LD 0,S
14EF  88 08                721   CMPB #8
14F1  CC                   722   ULT
14F2  D5 0A                723   SJNZ ?AB72
14F4  D0 4E 15             724   JMP ?AB71
14F7                       725  ?AB73 EQU *
14F7  04 00                726   LD 0,S
14F9  E4                   727   INC
14FA  A4 00                728   ST 0,S
14FC  D3 EF                729   SJMP ?AB70
14FE                       730  ?AB72 EQU *
14FE  01 12 00             731   LD spi_port
1501  DC                   732   PUSHA
1502  04 0A                733   LD 10,S
1504  58 80                734   ANDB #128
1506  D4 05                735   SJZ ?AB75
1508  01 08 00             736   LD spi_mosi_mask
150B  D3 01                737   SJMP ?AB74
150D                       738  ?AB75 EQU *
150D  E0                   739   CLR
150E                       740  ?AB74 EQU *
150E  61 10 00             741   OR spi_mosi_mask_d
1511  DC                   742   PUSHA
1512  D8 9C 13             743   CALL outport
1515  DB 04                744   FREE 4
1517  04 08                745   LD 8,S
1519  C0 01                746   SHL #1
151B  A4 08                747   ST 8,S
151D  04 02                748   LD 2,S
151F  C0 01                749   SHL #1
1521  A4 02                750   ST 2,S
1523  01 12 00             751   LD spi_port
1526  DC                   752   PUSHA
1527  E0                   753   CLR
1528  DC                   754   PUSHA
DUNFIELD CFLEA ASSEMBLER: GPIO                                         PAGE: 14

1529  D8 0A 14             755   CALL inport
152C  DB 04                756   FREE 4
152E  51 06 00             757   AND spi_miso_mask
1531  D4 04                758   SJZ ?AB77
1533  08 01                759   LDB #1
1535  D3 01                760   SJMP ?AB76
1537                       761  ?AB77 EQU *
1537  E0                   762   CLR
1538                       763  ?AB76 EQU *
1538  64 02                764   OR 2,S
153A  A4 02                765   ST 2,S
153C  08 01                766   LDB #1
153E  DC                   767   PUSHA
153F  D8 CD 14             768   CALL spi_set_sck
1542  DB 02                769   FREE 2
1544  E0                   770   CLR
1545  DC                   771   PUSHA
1546  D8 CD 14             772   CALL spi_set_sck
1549  DB 02                773   FREE 2
154B  D0 F7 14             774   JMP ?AB73
154E                       775  ?AB71 EQU *
154E  04 02                776   LD 2,S
1550                       777  ?AB78 EQU *
1550  DB 04                778   FREE 4
1552  D9                   779   RET
1553                       780  sd_init EQU *
1553  04 0A                781   LD 10,S
1555  A1 18 00             782   ST sd_port
1558  04 08                783   LD 8,S
155A  A1 1A 00             784   ST sd_cs_pin
155D  04 06                785   LD 6,S
155F  A1 1C 00             786   ST sd_sck_pin
1562  04 04                787   LD 4,S
1564  A1 1E 00             788   ST sd_miso_pin
1567  04 02                789   LD 2,S
1569  A1 20 00             790   ST sd_mosi_pin
156C  E0                   791   CLR
156D  A1 16 00             792   ST sd_is_hc
1570  E0                   793   CLR
1571  A1 14 00             794   ST sd_is_init
1574  D9                   795   RET
1575  DA 04                796  sd_cmd ALLOC 4
1577  08 FF                797   LDB #255
1579  DC                   798   PUSHA
157A  01 22 00             799   LD sd_clk
157D  DC                   800   PUSHA
157E  D8 E5 14             801   CALL spi_transfer
1581  DB 04                802   FREE 4
1583  08 FF                803   LDB #255
1585  DC                   804   PUSHA
1586  01 22 00             805   LD sd_clk
1589  DC                   806   PUSHA
158A  D8 E5 14             807   CALL spi_transfer
158D  DB 04                808   FREE 4
158F  04 0C                809   LD 12,S
1591  18 40                810   ADDB #64
1593  DC                   811   PUSHA
1594  01 22 00             812   LD sd_clk
DUNFIELD CFLEA ASSEMBLER: GPIO                                         PAGE: 15

1597  DC                   813   PUSHA
1598  D8 E5 14             814   CALL spi_transfer
159B  DB 04                815   FREE 4
159D  04 0A                816   LD 10,S
159F  B8 08                817   SHR #8
15A1  DC                   818   PUSHA
15A2  01 22 00             819   LD sd_clk
15A5  DC                   820   PUSHA
15A6  D8 E5 14             821   CALL spi_transfer
15A9  DB 04                822   FREE 4
15AB  04 0A                823   LD 10,S
15AD  58 FF                824   ANDB #255
15AF  DC                   825   PUSHA
15B0  01 22 00             826   LD sd_clk
15B3  DC                   827   PUSHA
15B4  D8 E5 14             828   CALL spi_transfer
15B7  DB 04                829   FREE 4
15B9  04 08                830   LD 8,S
15BB  B8 08                831   SHR #8
15BD  DC                   832   PUSHA
15BE  01 22 00             833   LD sd_clk
15C1  DC                   834   PUSHA
15C2  D8 E5 14             835   CALL spi_transfer
15C5  DB 04                836   FREE 4
15C7  04 08                837   LD 8,S
15C9  58 FF                838   ANDB #255
15CB  DC                   839   PUSHA
15CC  01 22 00             840   LD sd_clk
15CF  DC                   841   PUSHA
15D0  D8 E5 14             842   CALL spi_transfer
15D3  DB 04                843   FREE 4
15D5  04 06                844   LD 6,S
15D7  DC                   845   PUSHA
15D8  01 22 00             846   LD sd_clk
15DB  DC                   847   PUSHA
15DC  D8 E5 14             848   CALL spi_transfer
15DF  DB 04                849   FREE 4
15E1  E0                   850   CLR
15E2  A4 00                851   ST 0,S
15E4                       852  ?AB79 EQU *
15E4  04 00                853   LD 0,S
15E6  80 00 01             854   CMP #256
15E9  CC                   855   ULT
15EA  D5 0A                856   SJNZ ?AB81
15EC  D0 27 16             857   JMP ?AB80
15EF                       858  ?AB82 EQU *
15EF  04 00                859   LD 0,S
15F1  E4                   860   INC
15F2  A4 00                861   ST 0,S
15F4  D3 EE                862   SJMP ?AB79
15F6                       863  ?AB81 EQU *
15F6  08 FF                864   LDB #255
15F8  DC                   865   PUSHA
15F9  D8 E5 14             866   CALL spi_transfer
15FC  DB 02                867   FREE 2
15FE  A4 02                868   ST 2,S
1600  58 80                869   ANDB #128
1602  D2 24 16             870   JNZ ?AB83
DUNFIELD CFLEA ASSEMBLER: GPIO                                         PAGE: 16

1605  00 F7 1C             871   LD #?AB0+0
1608  DC                   872   PUSHA
1609  04 0E                873   LD 14,S
160B  DC                   874   PUSHA ;
160C  04 0E                875   LD 14,S
160E  DC                   876   PUSHA ;
160F  04 0E                877   LD 14,S
1611  DC                   878   PUSHA ;
1612  04 0E                879   LD 14,S
1614  DC                   880   PUSHA
1615  04 0C                881   LD 12,S
1617  DC                   882   PUSHA
1618  08 06                883   LDB #6
161A  D8 75 1F             884   CALL printf
161D  DB 0C                885   FREE 12
161F  04 02                886   LD 2,S
1621  D0 41 16             887   JMP ?AB84
1624                       888  ?AB83 EQU *
1624  D0 EF 15             889   JMP ?AB82
1627                       890  ?AB80 EQU *
1627  00 21 1D             891   LD #?AB0+42
162A  DC                   892   PUSHA
162B  04 0E                893   LD 14,S
162D  DC                   894   PUSHA ;
162E  04 0E                895   LD 14,S
1630  DC                   896   PUSHA ;
1631  04 0E                897   LD 14,S
1633  DC                   898   PUSHA ;
1634  04 0E                899   LD 14,S
1636  DC                   900   PUSHA
1637  08 05                901   LDB #5
1639  D8 75 1F             902   CALL printf
163C  DB 0A                903   FREE 10
163E  00 FF FF             904   LD #-1
1641                       905  ?AB84 EQU *
1641  DB 04                906   FREE 4
1643  D9                   907   RET
1644  DA 02                908  sd_read_block ALLOC 2
1646  E0                   909   CLR
1647  A4 00                910   ST 0,S
1649                       911  ?AB85 EQU *
1649  04 00                912   LD 0,S
164B  80 00 01             913   CMP #256
164E  CC                   914   ULT
164F  D5 0A                915   SJNZ ?AB87
1651  D0 6F 16             916   JMP ?AB86
1654                       917  ?AB88 EQU *
1654  04 00                918   LD 0,S
1656  E4                   919   INC
1657  A4 00                920   ST 0,S
1659  D3 EE                921   SJMP ?AB85
165B                       922  ?AB87 EQU *
165B  08 FF                923   LDB #255
165D  DC                   924   PUSHA
165E  01 22 00             925   LD sd_clk
1661  DC                   926   PUSHA
1662  D8 E5 14             927   CALL spi_transfer
1665  DB 04                928   FREE 4
DUNFIELD CFLEA ASSEMBLER: GPIO                                         PAGE: 17

1667  88 FE                929   CMPB #254
1669  D2 6F 16             930   JNZ ?AB86
166C                       931  ?AB89 EQU *
166C  D0 54 16             932   JMP ?AB88
166F                       933  ?AB86 EQU *
166F  04 00                934   LD 0,S
1671  80 00 01             935   CMP #256
1674  D1 7D 16             936   JZ ?AB90
1677  00 FF FF             937   LD #-1
167A  D0 C0 16             938   JMP ?AB91
167D                       939  ?AB90 EQU *
167D  E0                   940   CLR
167E  A4 00                941   ST 0,S
1680                       942  ?AB92 EQU *
1680  04 00                943   LD 0,S
1682  84 04                944   CMP 4,S
1684  CC                   945   ULT
1685  D5 0A                946   SJNZ ?AB94
1687  D0 A7 16             947   JMP ?AB93
168A                       948  ?AB95 EQU *
168A  04 00                949   LD 0,S
168C  E4                   950   INC
168D  A4 00                951   ST 0,S
168F  D3 EF                952   SJMP ?AB92
1691                       953  ?AB94 EQU *
1691  04 00                954   LD 0,S
1693  94 06                955   LDI 6,S
1695  E8                   956   ADAI
1696  DD                   957   PUSHI
1697  08 FF                958   LDB #255
1699  DC                   959   PUSHA
169A  01 22 00             960   LD sd_clk
169D  DC                   961   PUSHA
169E  D8 E5 14             962   CALL spi_transfer
16A1  DB 04                963   FREE 4
16A3  AE                   964   STB [S+]
16A4  D0 8A 16             965   JMP ?AB95
16A7                       966  ?AB93 EQU *
16A7  08 FF                967   LDB #255
16A9  DC                   968   PUSHA
16AA  01 22 00             969   LD sd_clk
16AD  DC                   970   PUSHA
16AE  D8 E5 14             971   CALL spi_transfer
16B1  DB 04                972   FREE 4
16B3  08 FF                973   LDB #255
16B5  DC                   974   PUSHA
16B6  01 22 00             975   LD sd_clk
16B9  DC                   976   PUSHA
16BA  D8 E5 14             977   CALL spi_transfer
16BD  DB 04                978   FREE 4
16BF  E0                   979   CLR
16C0                       980  ?AB91 EQU *
16C0  95                   981   LDI S+
16C1  D9                   982   RET
16C2  DA 06                983  sd_reset ALLOC 6
16C4  E0                   984   CLR
16C5  A4 02                985   ST 2,S
16C7                       986  ?AB96 EQU *
DUNFIELD CFLEA ASSEMBLER: GPIO                                         PAGE: 18

16C7  D8 3F 13             987   CALL since_us
16CA  00 45 1D             988   LD #?AB0+78
16CD  DC                   989   PUSHA
16CE  04 04                990   LD 4,S
16D0  DC                   991   PUSHA
16D1  08 02                992   LDB #2
16D3  D8 75 1F             993   CALL printf
16D6  DB 04                994   FREE 4
16D8  08 05                995   LDB #5
16DA  A1 22 00             996   ST sd_clk
16DD  E0                   997   CLR
16DE  A1 16 00             998   ST sd_is_hc
16E1  E0                   999   CLR
16E2  A1 14 00            1000   ST sd_is_init
16E5  04 02               1001   LD 2,S
16E7  E4                  1002   INC
16E8  A4 02               1003   ST 2,S
16EA  88 10               1004   CMPB #16
16EC  D1 F5 16            1005   JZ ?AB97
16EF  00 FF FF            1006   LD #-1
16F2  D0 6D 19            1007   JMP ?AB98
16F5                      1008  ?AB97 EQU *
16F5  01 18 00            1009   LD sd_port
16F8  DC                  1010   PUSHA
16F9  01 1A 00            1011   LD sd_cs_pin
16FC  DC                  1012   PUSHA
16FD  01 1C 00            1013   LD sd_sck_pin
1700  DC                  1014   PUSHA
1701  01 1E 00            1015   LD sd_miso_pin
1704  DC                  1016   PUSHA
1705  01 20 00            1017   LD sd_mosi_pin
1708  DC                  1018   PUSHA
1709  D8 45 14            1019   CALL spi_setup
170C  DB 0A               1020   FREE 10
170E  08 01               1021   LDB #1
1710  DC                  1022   PUSHA
1711  D8 B5 14            1023   CALL spi_set_cs
1714  DB 02               1024   FREE 2
1716  E0                  1025   CLR
1717  A4 00               1026   ST 0,S
1719                      1027  ?AB99 EQU *
1719  04 00               1028   LD 0,S
171B  88 0A               1029   CMPB #10
171D  CC                  1030   ULT
171E  D5 0A               1031   SJNZ ?AB101
1720  D0 39 17            1032   JMP ?AB100
1723                      1033  ?AB102 EQU *
1723  04 00               1034   LD 0,S
1725  E4                  1035   INC
1726  A4 00               1036   ST 0,S
1728  D3 EF               1037   SJMP ?AB99
172A                      1038  ?AB101 EQU *
172A  08 FF               1039   LDB #255
172C  DC                  1040   PUSHA
172D  01 22 00            1041   LD sd_clk
1730  DC                  1042   PUSHA
1731  D8 E5 14            1043   CALL spi_transfer
1734  DB 04               1044   FREE 4
DUNFIELD CFLEA ASSEMBLER: GPIO                                         PAGE: 19

1736  D0 23 17            1045   JMP ?AB102
1739                      1046  ?AB100 EQU *
1739  E0                  1047   CLR
173A  DC                  1048   PUSHA
173B  D8 B5 14            1049   CALL spi_set_cs
173E  DB 02               1050   FREE 2
1740  00 59 1D            1051   LD #?AB0+98
1743  DC                  1052   PUSHA
1744  D8 3F 13            1053   CALL since_us
1747  DC                  1054   PUSHA
1748  08 02               1055   LDB #2
174A  D8 75 1F            1056   CALL printf
174D  DB 04               1057   FREE 4
174F  E0                  1058   CLR
1750  DC                  1059   PUSHA
1751  E0                  1060   CLR
1752  DC                  1061   PUSHA
1753  E0                  1062   CLR
1754  DC                  1063   PUSHA
1755  08 95               1064   LDB #149
1757  DC                  1065   PUSHA
1758  D8 75 15            1066   CALL sd_cmd
175B  DB 08               1067   FREE 8
175D  88 01               1068   CMPB #1
175F  D1 C7 16            1069   JZ ?AB96
1762                      1070  ?AB103 EQU *
1762  00 7A 1D            1071   LD #?AB0+131
1765  DC                  1072   PUSHA
1766  D8 3F 13            1073   CALL since_us
1769  DC                  1074   PUSHA
176A  08 02               1075   LDB #2
176C  D8 75 1F            1076   CALL printf
176F  DB 04               1077   FREE 4
1771  08 08               1078   LDB #8
1773  DC                  1079   PUSHA
1774  E0                  1080   CLR
1775  DC                  1081   PUSHA
1776  00 AA 01            1082   LD #426
1779  DC                  1083   PUSHA
177A  08 87               1084   LDB #135
177C  DC                  1085   PUSHA
177D  D8 75 15            1086   CALL sd_cmd
1780  DB 08               1087   FREE 8
1782  88 01               1088   CMPB #1
1784  D1 C7 16            1089   JZ ?AB96
1787                      1090  ?AB104 EQU *
1787  00 9B 1D            1091   LD #?AB0+164
178A  DC                  1092   PUSHA
178B  D8 3F 13            1093   CALL since_us
178E  DC                  1094   PUSHA
178F  08 02               1095   LDB #2
1791  D8 75 1F            1096   CALL printf
1794  DB 04               1097   FREE 4
1796  08 FF               1098   LDB #255
1798  DC                  1099   PUSHA
1799  01 22 00            1100   LD sd_clk
179C  DC                  1101   PUSHA
179D  D8 E5 14            1102   CALL spi_transfer
DUNFIELD CFLEA ASSEMBLER: GPIO                                         PAGE: 20

17A0  DB 04               1103   FREE 4
17A2  88 00               1104   CMPB #0
17A4  D1 C7 16            1105   JZ ?AB96
17A7                      1106  ?AB105 EQU *
17A7  08 FF               1107   LDB #255
17A9  DC                  1108   PUSHA
17AA  01 22 00            1109   LD sd_clk
17AD  DC                  1110   PUSHA
17AE  D8 E5 14            1111   CALL spi_transfer
17B1  DB 04               1112   FREE 4
17B3  88 00               1113   CMPB #0
17B5  D1 C7 16            1114   JZ ?AB96
17B8                      1115  ?AB106 EQU *
17B8  08 FF               1116   LDB #255
17BA  DC                  1117   PUSHA
17BB  01 22 00            1118   LD sd_clk
17BE  DC                  1119   PUSHA
17BF  D8 E5 14            1120   CALL spi_transfer
17C2  DB 04               1121   FREE 4
17C4  88 01               1122   CMPB #1
17C6  D1 C7 16            1123   JZ ?AB96
17C9                      1124  ?AB107 EQU *
17C9  08 FF               1125   LDB #255
17CB  DC                  1126   PUSHA
17CC  01 22 00            1127   LD sd_clk
17CF  DC                  1128   PUSHA
17D0  D8 E5 14            1129   CALL spi_transfer
17D3  DB 04               1130   FREE 4
17D5  88 AA               1131   CMPB #170
17D7  D1 C7 16            1132   JZ ?AB96
17DA                      1133  ?AB108 EQU *
17DA  00 C6 1D            1134   LD #?AB0+207
17DD  DC                  1135   PUSHA
17DE  D8 3F 13            1136   CALL since_us
17E1  DC                  1137   PUSHA
17E2  08 02               1138   LDB #2
17E4  D8 75 1F            1139   CALL printf
17E7  DB 04               1140   FREE 4
17E9  E0                  1141   CLR
17EA  A4 00               1142   ST 0,S
17EC                      1143  ?AB109 EQU *
17EC  04 00               1144   LD 0,S
17EE  80 00 01            1145   CMP #256
17F1  CC                  1146   ULT
17F2  D5 0A               1147   SJNZ ?AB111
17F4  D0 29 18            1148   JMP ?AB110
17F7                      1149  ?AB112 EQU *
17F7  04 00               1150   LD 0,S
17F9  E4                  1151   INC
17FA  A4 00               1152   ST 0,S
17FC  D3 EE               1153   SJMP ?AB109
17FE                      1154  ?AB111 EQU *
17FE  08 37               1155   LDB #55
1800  DC                  1156   PUSHA
1801  E0                  1157   CLR
1802  DC                  1158   PUSHA
1803  E0                  1159   CLR
1804  DC                  1160   PUSHA
DUNFIELD CFLEA ASSEMBLER: GPIO                                         PAGE: 21

1805  E0                  1161   CLR
1806  DC                  1162   PUSHA
1807  D8 75 15            1163   CALL sd_cmd
180A  DB 08               1164   FREE 8
180C  88 01               1165   CMPB #1
180E  D1 C7 16            1166   JZ ?AB96
1811                      1167  ?AB113 EQU *
1811  08 29               1168   LDB #41
1813  DC                  1169   PUSHA
1814  00 00 40            1170   LD #16384
1817  DC                  1171   PUSHA
1818  E0                  1172   CLR
1819  DC                  1173   PUSHA
181A  E0                  1174   CLR
181B  DC                  1175   PUSHA
181C  D8 75 15            1176   CALL sd_cmd
181F  DB 08               1177   FREE 8
1821  88 00               1178   CMPB #0
1823  D2 29 18            1179   JNZ ?AB110
1826                      1180  ?AB114 EQU *
1826  D0 F7 17            1181   JMP ?AB112
1829                      1182  ?AB110 EQU *
1829  04 00               1183   LD 0,S
182B  80 00 01            1184   CMP #256
182E  D2 C7 16            1185   JNZ ?AB96
1831                      1186  ?AB115 EQU *
1831  E0                  1187   CLR
1832  A1 22 00            1188   ST sd_clk
1835  00 E9 1D            1189   LD #?AB0+242
1838  DC                  1190   PUSHA
1839  D8 3F 13            1191   CALL since_us
183C  DC                  1192   PUSHA
183D  08 02               1193   LDB #2
183F  D8 75 1F            1194   CALL printf
1842  DB 04               1195   FREE 4
1844  E0                  1196   CLR
1845  A4 00               1197   ST 0,S
1847                      1198  ?AB116 EQU *
1847  04 00               1199   LD 0,S
1849  80 00 01            1200   CMP #256
184C  CC                  1201   ULT
184D  D5 0A               1202   SJNZ ?AB118
184F  D0 B9 18            1203   JMP ?AB117
1852                      1204  ?AB119 EQU *
1852  04 00               1205   LD 0,S
1854  E4                  1206   INC
1855  A4 00               1207   ST 0,S
1857  D3 EE               1208   SJMP ?AB116
1859                      1209  ?AB118 EQU *
1859  08 3A               1210   LDB #58
185B  DC                  1211   PUSHA
185C  E0                  1212   CLR
185D  DC                  1213   PUSHA
185E  E0                  1214   CLR
185F  DC                  1215   PUSHA
1860  E0                  1216   CLR
1861  DC                  1217   PUSHA
1862  D8 75 15            1218   CALL sd_cmd
DUNFIELD CFLEA ASSEMBLER: GPIO                                         PAGE: 22

1865  DB 08               1219   FREE 8
1867  88 00               1220   CMPB #0
1869  D1 C7 16            1221   JZ ?AB96
186C                      1222  ?AB120 EQU *
186C  08 FF               1223   LDB #255
186E  DC                  1224   PUSHA
186F  01 22 00            1225   LD sd_clk
1872  DC                  1226   PUSHA
1873  D8 E5 14            1227   CALL spi_transfer
1876  DB 04               1228   FREE 4
1878  A4 04               1229   ST 4,S
187A  08 FF               1230   LDB #255
187C  DC                  1231   PUSHA
187D  01 22 00            1232   LD sd_clk
1880  DC                  1233   PUSHA
1881  D8 E5 14            1234   CALL spi_transfer
1884  DB 04               1235   FREE 4
1886  08 FF               1236   LDB #255
1888  DC                  1237   PUSHA
1889  01 22 00            1238   LD sd_clk
188C  DC                  1239   PUSHA
188D  D8 E5 14            1240   CALL spi_transfer
1890  DB 04               1241   FREE 4
1892  08 FF               1242   LDB #255
1894  DC                  1243   PUSHA
1895  01 22 00            1244   LD sd_clk
1898  DC                  1245   PUSHA
1899  D8 E5 14            1246   CALL spi_transfer
189C  DB 04               1247   FREE 4
189E  04 04               1248   LD 4,S
18A0  58 80               1249   ANDB #128
18A2  D1 B6 18            1250   JZ ?AB121
18A5  04 04               1251   LD 4,S
18A7  58 40               1252   ANDB #64
18A9  D4 04               1253   SJZ ?AB123
18AB  08 01               1254   LDB #1
18AD  D3 01               1255   SJMP ?AB122
18AF                      1256  ?AB123 EQU *
18AF  E0                  1257   CLR
18B0                      1258  ?AB122 EQU *
18B0  A1 16 00            1259   ST sd_is_hc
18B3  D0 B9 18            1260   JMP ?AB117
18B6                      1261  ?AB121 EQU *
18B6  D0 52 18            1262   JMP ?AB119
18B9                      1263  ?AB117 EQU *
18B9  04 00               1264   LD 0,S
18BB  80 00 01            1265   CMP #256
18BE  D2 C7 16            1266   JNZ ?AB96
18C1                      1267  ?AB124 EQU *
18C1  01 16 00            1268   LD sd_is_hc
18C4  D2 EB 18            1269   JNZ ?AB125
18C7  00 0B 1E            1270   LD #?AB0+276
18CA  DC                  1271   PUSHA
18CB  D8 3F 13            1272   CALL since_us
18CE  DC                  1273   PUSHA
18CF  08 02               1274   LDB #2
18D1  D8 75 1F            1275   CALL printf
18D4  DB 04               1276   FREE 4
DUNFIELD CFLEA ASSEMBLER: GPIO                                         PAGE: 23

18D6  08 10               1277   LDB #16
18D8  DC                  1278   PUSHA
18D9  E0                  1279   CLR
18DA  DC                  1280   PUSHA
18DB  00 00 02            1281   LD #512
18DE  DC                  1282   PUSHA
18DF  E0                  1283   CLR
18E0  DC                  1284   PUSHA
18E1  D8 75 15            1285   CALL sd_cmd
18E4  DB 08               1286   FREE 8
18E6  88 00               1287   CMPB #0
18E8  D1 C7 16            1288   JZ ?AB96
18EB                      1289  ?AB126 EQU *
18EB                      1290  ?AB125 EQU *
18EB  00 2D 1E            1291   LD #?AB0+310
18EE  DC                  1292   PUSHA
18EF  D8 3F 13            1293   CALL since_us
18F2  DC                  1294   PUSHA
18F3  08 02               1295   LDB #2
18F5  D8 75 1F            1296   CALL printf
18F8  DB 04               1297   FREE 4
18FA  08 09               1298   LDB #9
18FC  DC                  1299   PUSHA
18FD  E0                  1300   CLR
18FE  DC                  1301   PUSHA
18FF  E0                  1302   CLR
1900  DC                  1303   PUSHA
1901  E0                  1304   CLR
1902  DC                  1305   PUSHA
1903  D8 75 15            1306   CALL sd_cmd
1906  DB 08               1307   FREE 8
1908  88 00               1308   CMPB #0
190A  D1 C7 16            1309   JZ ?AB96
190D                      1310  ?AB127 EQU *
190D  00 4E 1E            1311   LD #?AB0+343
1910  DC                  1312   PUSHA
1911  D8 3F 13            1313   CALL since_us
1914  DC                  1314   PUSHA
1915  08 02               1315   LDB #2
1917  D8 75 1F            1316   CALL printf
191A  DB 04               1317   FREE 4
191C  00 28 00            1318   LD #sd_csd
191F  DC                  1319   PUSHA
1920  08 10               1320   LDB #16
1922  DC                  1321   PUSHA
1923  D8 44 16            1322   CALL sd_read_block
1926  DB 04               1323   FREE 4
1928  88 00               1324   CMPB #0
192A  D1 C7 16            1325   JZ ?AB96
192D                      1326  ?AB128 EQU *
192D  00 77 1E            1327   LD #?AB0+384
1930  DC                  1328   PUSHA
1931  D8 3F 13            1329   CALL since_us
1934  DC                  1330   PUSHA
1935  08 02               1331   LDB #2
1937  D8 75 1F            1332   CALL printf
193A  DB 04               1333   FREE 4
193C  08 01               1334   LDB #1
DUNFIELD CFLEA ASSEMBLER: GPIO                                         PAGE: 24

193E  DC                  1335   PUSHA
193F  D8 B5 14            1336   CALL spi_set_cs
1942  DB 02               1337   FREE 2
1944  90 24 00            1338   LDI #sd_sectors+0
1947  DD                  1339   PUSHI
1948  90 31 00            1340   LDI #sd_csd+9
194B  0A                  1341   LDB I
194C  C0 0A               1342   SHL #10
194E  A6                  1343   ST [S+]
194F  90 26 00            1344   LDI #sd_sectors+2
1952  DD                  1345   PUSHI
1953  90 31 00            1346   LDI #sd_csd+9
1956  0A                  1347   LDB I
1957  B8 06               1348   SHR #6
1959  DC                  1349   PUSHA
195A  90 30 00            1350   LDI #sd_csd+8
195D  0A                  1351   LDB I
195E  C0 02               1352   SHL #2
1960  6D                  1353   ORB S+
1961  DC                  1354   PUSHA
1962  90 2F 00            1355   LDI #sd_csd+7
1965  0A                  1356   LDB I
1966  58 3F               1357   ANDB #63
1968  C0 0A               1358   SHL #10
196A  65                  1359   OR S+
196B  A6                  1360   ST [S+]
196C  E0                  1361   CLR
196D                      1362  ?AB98 EQU *
196D  DB 06               1363   FREE 6
196F  D9                  1364   RET
1970  DA 02               1365  sd_read_sector ALLOC 2
1972  00 FF FF            1366   LD #-1
1975  A4 00               1367   ST 0,S
1977  01 18 00            1368   LD sd_port
197A  DC                  1369   PUSHA
197B  01 1A 00            1370   LD sd_cs_pin
197E  DC                  1371   PUSHA
197F  01 1C 00            1372   LD sd_sck_pin
1982  DC                  1373   PUSHA
1983  01 1E 00            1374   LD sd_miso_pin
1986  DC                  1375   PUSHA
1987  01 20 00            1376   LD sd_mosi_pin
198A  DC                  1377   PUSHA
198B  D8 45 14            1378   CALL spi_setup
198E  DB 0A               1379   FREE 10
1990  E0                  1380   CLR
1991  DC                  1381   PUSHA
1992  D8 B5 14            1382   CALL spi_set_cs
1995  DB 02               1383   FREE 2
1997  08 11               1384   LDB #17
1999  DC                  1385   PUSHA
199A  94 08               1386   LDI 8,S
199C  9B 02               1387   LEAI 2,I
199E  02                  1388   LD I
199F  DC                  1389   PUSHA
19A0  94 0A               1390   LDI 10,S
19A2  9A                  1391   LEAI I
19A3  02                  1392   LD I
DUNFIELD CFLEA ASSEMBLER: GPIO                                         PAGE: 25

19A4  DC                  1393   PUSHA
19A5  E0                  1394   CLR
19A6  DC                  1395   PUSHA
19A7  D8 75 15            1396   CALL sd_cmd
19AA  DB 08               1397   FREE 8
19AC  88 00               1398   CMPB #0
19AE  D1 C5 19            1399   JZ ?AB130
19B1                      1400  ?AB129 EQU *
19B1  04 04               1401   LD 4,S
19B3  DC                  1402   PUSHA
19B4  00 00 02            1403   LD #512
19B7  DC                  1404   PUSHA
19B8  D8 44 16            1405   CALL sd_read_block
19BB  DB 04               1406   FREE 4
19BD  88 00               1407   CMPB #0
19BF  D1 C5 19            1408   JZ ?AB130
19C2                      1409  ?AB131 EQU *
19C2  E0                  1410   CLR
19C3  A4 00               1411   ST 0,S
19C5                      1412  ?AB130 EQU *
19C5  08 01               1413   LDB #1
19C7  DC                  1414   PUSHA
19C8  D8 B5 14            1415   CALL spi_set_cs
19CB  DB 02               1416   FREE 2
19CD  04 00               1417   LD 0,S
19CF                      1418  ?AB132 EQU *
19CF  95                  1419   LDI S+
19D0  D9                  1420   RET
19D1  DA 02               1421  remap ALLOC 2
19D3  E0                  1422   CLR
19D4  A4 00               1423   ST 0,S
19D6  04 04               1424   LD 4,S
19D8  58 01               1425   ANDB #1
19DA  D1 E3 19            1426   JZ ?AB133
19DD  04 00               1427   LD 0,S
19DF  68 10               1428   ORB #16
19E1  A4 00               1429   ST 0,S
19E3                      1430  ?AB133 EQU *
19E3  04 04               1431   LD 4,S
19E5  58 02               1432   ANDB #2
19E7  D1 F0 19            1433   JZ ?AB134
19EA  04 00               1434   LD 0,S
19EC  68 01               1435   ORB #1
19EE  A4 00               1436   ST 0,S
19F0                      1437  ?AB134 EQU *
19F0  04 04               1438   LD 4,S
19F2  58 04               1439   ANDB #4
19F4  D1 FD 19            1440   JZ ?AB135
19F7  04 00               1441   LD 0,S
19F9  68 20               1442   ORB #32
19FB  A4 00               1443   ST 0,S
19FD                      1444  ?AB135 EQU *
19FD  04 04               1445   LD 4,S
19FF  58 08               1446   ANDB #8
1A01  D1 0A 1A            1447   JZ ?AB136
1A04  04 00               1448   LD 0,S
1A06  68 02               1449   ORB #2
1A08  A4 00               1450   ST 0,S
DUNFIELD CFLEA ASSEMBLER: GPIO                                         PAGE: 26

1A0A                      1451  ?AB136 EQU *
1A0A  04 04               1452   LD 4,S
1A0C  58 10               1453   ANDB #16
1A0E  D1 17 1A            1454   JZ ?AB137
1A11  04 00               1455   LD 0,S
1A13  68 40               1456   ORB #64
1A15  A4 00               1457   ST 0,S
1A17                      1458  ?AB137 EQU *
1A17  04 04               1459   LD 4,S
1A19  58 20               1460   ANDB #32
1A1B  D1 24 1A            1461   JZ ?AB138
1A1E  04 00               1462   LD 0,S
1A20  68 04               1463   ORB #4
1A22  A4 00               1464   ST 0,S
1A24                      1465  ?AB138 EQU *
1A24  04 04               1466   LD 4,S
1A26  58 40               1467   ANDB #64
1A28  D1 31 1A            1468   JZ ?AB139
1A2B  04 00               1469   LD 0,S
1A2D  68 80               1470   ORB #128
1A2F  A4 00               1471   ST 0,S
1A31                      1472  ?AB139 EQU *
1A31  04 04               1473   LD 4,S
1A33  58 80               1474   ANDB #128
1A35  D1 3E 1A            1475   JZ ?AB140
1A38  04 00               1476   LD 0,S
1A3A  68 08               1477   ORB #8
1A3C  A4 00               1478   ST 0,S
1A3E                      1479  ?AB140 EQU *
1A3E  04 00               1480   LD 0,S
1A40  E1                  1481   COM
1A41  58 FF               1482   ANDB #255
1A43                      1483  ?AB141 EQU *
1A43  95                  1484   LDI S+
1A44  D9                  1485   RET
1A45  DA 6B               1486  main ALLOC 107
1A47  E0                  1487   CLR
1A48  DC                  1488   PUSHA
1A49  08 03               1489   LDB #3
1A4B  DC                  1490   PUSHA
1A4C  E0                  1491   CLR
1A4D  DC                  1492   PUSHA
1A4E  08 01               1493   LDB #1
1A50  DC                  1494   PUSHA
1A51  08 02               1495   LDB #2
1A53  DC                  1496   PUSHA
1A54  D8 53 15            1497   CALL sd_init
1A57  DB 0A               1498   FREE 10
1A59  D8 C2 16            1499   CALL sd_reset
1A5C  A4 08               1500   ST 8,S
1A5E  00 95 1E            1501   LD #?AB0+414
1A61  DC                  1502   PUSHA
1A62  04 0A               1503   LD 10,S
1A64  DC                  1504   PUSHA
1A65  01 0C 00            1505   LD spi_sck_mask_ds
1A68  DC                  1506   PUSHA
1A69  01 0E 00            1507   LD spi_miso_mask_d
1A6C  DC                  1508   PUSHA
DUNFIELD CFLEA ASSEMBLER: GPIO                                         PAGE: 27

1A6D  01 10 00            1509   LD spi_mosi_mask_d
1A70  DC                  1510   PUSHA
1A71  01 0A 00            1511   LD spi_cs_mask_ds
1A74  DC                  1512   PUSHA
1A75  08 06               1513   LDB #6
1A77  D8 75 1F            1514   CALL printf
1A7A  DB 0C               1515   FREE 12
1A7C  04 08               1516   LD 8,S
1A7E  D2 18 1B            1517   JNZ ?AB142
1A81  E0                  1518   CLR
1A82  A4 08               1519   ST 8,S
1A84                      1520  ?AB143 EQU *
1A84  04 08               1521   LD 8,S
1A86  88 10               1522   CMPB #16
1A88  CC                  1523   ULT
1A89  D5 0A               1524   SJNZ ?AB145
1A8B  D0 AE 1A            1525   JMP ?AB144
1A8E                      1526  ?AB146 EQU *
1A8E  04 08               1527   LD 8,S
1A90  E4                  1528   INC
1A91  A4 08               1529   ST 8,S
1A93  D3 EF               1530   SJMP ?AB143
1A95                      1531  ?AB145 EQU *
1A95  00 BF 1E            1532   LD #?AB0+456
1A98  DC                  1533   PUSHA
1A99  04 0A               1534   LD 10,S
1A9B  DC                  1535   PUSHA
1A9C  04 0C               1536   LD 12,S
1A9E  90 28 00            1537   LDI #sd_csd
1AA1  E8                  1538   ADAI
1AA2  0A                  1539   LDB I
1AA3  DC                  1540   PUSHA
1AA4  08 03               1541   LDB #3
1AA6  D8 75 1F            1542   CALL printf
1AA9  DB 06               1543   FREE 6
1AAB  D0 8E 1A            1544   JMP ?AB146
1AAE                      1545  ?AB144 EQU *
1AAE  00 D0 1E            1546   LD #?AB0+473
1AB1  DC                  1547   PUSHA
1AB2  90 26 00            1548   LDI #sd_sectors+2
1AB5  02                  1549   LD I
1AB6  DC                  1550   PUSHA
1AB7  90 24 00            1551   LDI #sd_sectors+0
1ABA  02                  1552   LD I
1ABB  DC                  1553   PUSHA
1ABC  08 03               1554   LDB #3
1ABE  D8 75 1F            1555   CALL printf
1AC1  DB 06               1556   FREE 6
1AC3  9C 0C               1557   LEAI 12+0,S
1AC5  DD                  1558   PUSHI
1AC6  9C 10               1559   LEAI 14+2,S
1AC8  E0                  1560   CLR
1AC9  A2                  1561   ST I
1ACA  A6                  1562   ST [S+]
1ACB  9C 0C               1563   LEAI 12,S
1ACD  DD                  1564   PUSHI
1ACE  00 3A 00            1565   LD #sec
1AD1  DC                  1566   PUSHA
DUNFIELD CFLEA ASSEMBLER: GPIO                                         PAGE: 28

1AD2  D8 70 19            1567   CALL sd_read_sector
1AD5  DB 04               1568   FREE 4
1AD7  E0                  1569   CLR
1AD8  A4 08               1570   ST 8,S
1ADA                      1571  ?AB147 EQU *
1ADA  04 08               1572   LD 8,S
1ADC  80 00 02            1573   CMP #512
1ADF  CC                  1574   ULT
1AE0  D5 0A               1575   SJNZ ?AB149
1AE2  D0 18 1B            1576   JMP ?AB148
1AE5                      1577  ?AB150 EQU *
1AE5  04 08               1578   LD 8,S
1AE7  E4                  1579   INC
1AE8  A4 08               1580   ST 8,S
1AEA  D3 EE               1581   SJMP ?AB147
1AEC                      1582  ?AB149 EQU *
1AEC  00 F0 1E            1583   LD #?AB0+505
1AEF  DC                  1584   PUSHA
1AF0  04 0A               1585   LD 10,S
1AF2  90 3A 00            1586   LDI #sec
1AF5  E8                  1587   ADAI
1AF6  0A                  1588   LDB I
1AF7  DC                  1589   PUSHA
1AF8  08 02               1590   LDB #2
1AFA  D8 75 1F            1591   CALL printf
1AFD  DB 04               1592   FREE 4
1AFF  04 08               1593   LD 8,S
1B01  18 01               1594   ADDB #1
1B03  58 0F               1595   ANDB #15
1B05  88 00               1596   CMPB #0
1B07  D1 15 1B            1597   JZ ?AB151
1B0A  00 1F 1D            1598   LD #?AB0+40
1B0D  DC                  1599   PUSHA
1B0E  08 01               1600   LDB #1
1B10  D8 75 1F            1601   CALL printf
1B13  DB 02               1602   FREE 2
1B15                      1603  ?AB151 EQU *
1B15  D0 E5 1A            1604   JMP ?AB150
1B18                      1605  ?AB148 EQU *
1B18                      1606  ?AB142 EQU *
1B18  00 00 F0            1607  		LD #$F000
1B1B  D6                  1608  		IJMP
1B1C  D8 0D 10            1609   CALL c_clrscr
1B1F  D8 64 13            1610   CALL delay_calibrate
1B22  A4 08               1611   ST 8,S
1B24  9C 1B               1612   LEAI 27,S
1B26  DD                  1613   PUSHI
1B27  00 F6 1E            1614   LD #?AB0+511
1B2A  DC                  1615   PUSHA
1B2B  04 0C               1616   LD 12,S
1B2D  DC                  1617   PUSHA
1B2E  04 0E               1618   LD 14,S
1B30  DC                  1619   PUSHA
1B31  D8 5A 13            1620   CALL delay_loops
1B34  DB 02               1621   FREE 2
1B36  DC                  1622   PUSHA
1B37  08 04               1623   LDB #4
1B39  D8 80 1F            1624   CALL sprintf
DUNFIELD CFLEA ASSEMBLER: GPIO                                         PAGE: 29

1B3C  DB 08               1625   FREE 8
1B3E  9C 1B               1626   LEAI 27,S
1B40  DD                  1627   PUSHI
1B41  D8 C0 10            1628   CALL c_puts
1B44  DB 02               1629   FREE 2
1B46  08 01               1630   LDB #1
1B48  DC                  1631   PUSHA
1B49  08 FF               1632   LDB #255
1B4B  DC                  1633   PUSHA
1B4C  D8 9C 13            1634   CALL outport
1B4F  DB 04               1635   FREE 4
1B51                      1636  ?AB152 EQU *
1B51  E0                  1637   CLR
1B52  A4 08               1638   ST 8,S
1B54                      1639  ?AB154 EQU *
1B54  04 08               1640   LD 8,S
1B56  80 00 01            1641   CMP #256
1B59  CC                  1642   ULT
1B5A  D5 0A               1643   SJNZ ?AB156
1B5C  D0 A6 1B            1644   JMP ?AB155
1B5F                      1645  ?AB157 EQU *
1B5F  04 08               1646   LD 8,S
1B61  E4                  1647   INC
1B62  A4 08               1648   ST 8,S
1B64  D3 EE               1649   SJMP ?AB154
1B66                      1650  ?AB156 EQU *
1B66  E0                  1651   CLR
1B67  DC                  1652   PUSHA
1B68  04 0A               1653   LD 10,S
1B6A  DC                  1654   PUSHA
1B6B  D8 D1 19            1655   CALL remap
1B6E  DB 02               1656   FREE 2
1B70  DC                  1657   PUSHA
1B71  D8 9C 13            1658   CALL outport
1B74  DB 04               1659   FREE 4
1B76  08 01               1660   LDB #1
1B78  DC                  1661   PUSHA
1B79  00 00 10            1662   LD #4096
1B7C  DC                  1663   PUSHA
1B7D  D8 0A 14            1664   CALL inport
1B80  DB 04               1665   FREE 4
1B82  9C 1B               1666   LEAI 27,S
1B84  DD                  1667   PUSHI
1B85  00 0E 1F            1668   LD #?AB0+535
1B88  DC                  1669   PUSHA
1B89  04 0C               1670   LD 12,S
1B8B  DC                  1671   PUSHA
1B8C  08 03               1672   LDB #3
1B8E  D8 80 1F            1673   CALL sprintf
1B91  DB 06               1674   FREE 6
1B93  9C 1B               1675   LEAI 27,S
1B95  DD                  1676   PUSHI
1B96  D8 C0 10            1677   CALL c_puts
1B99  DB 02               1678   FREE 2
1B9B  08 FA               1679   LDB #250
1B9D  DC                  1680   PUSHA
1B9E  D8 44 13            1681   CALL wait_ms
1BA1  DB 02               1682   FREE 2
DUNFIELD CFLEA ASSEMBLER: GPIO                                         PAGE: 30

1BA3  D0 5F 1B            1683   JMP ?AB157
1BA6                      1684  ?AB155 EQU *
1BA6  D0 51 1B            1685   JMP ?AB152
1BA9                      1686  ?AB153 EQU *
1BA9  E0                  1687   CLR
1BAA  A4 08               1688   ST 8,S
1BAC                      1689  ?AB158 EQU *
1BAC  04 08               1690   LD 8,S
1BAE  88 04               1691   CMPB #4
1BB0  CC                  1692   ULT
1BB1  D5 0A               1693   SJNZ ?AB160
1BB3  D0 CE 1B            1694   JMP ?AB159
1BB6                      1695  ?AB161 EQU *
1BB6  04 08               1696   LD 8,S
1BB8  E4                  1697   INC
1BB9  A4 08               1698   ST 8,S
1BBB  D3 EF               1699   SJMP ?AB158
1BBD                      1700  ?AB160 EQU *
1BBD  04 08               1701   LD 8,S
1BBF  38 02               1702   MULB #2
1BC1  9C 00               1703   LEAI 0,S
1BC3  E8                  1704   ADAI
1BC4  04 08               1705   LD 8,S
1BC6  38 02               1706   MULB #2
1BC8  18 01               1707   ADDB #1
1BCA  A2                  1708   ST I
1BCB  D0 B6 1B            1709   JMP ?AB161
1BCE                      1710  ?AB159 EQU *
1BCE  D8 0D 10            1711   CALL c_clrscr
1BD1  D8 64 13            1712   CALL delay_calibrate
1BD4  A4 08               1713   ST 8,S
1BD6  9C 1B               1714   LEAI 27,S
1BD8  DD                  1715   PUSHI
1BD9  00 F6 1E            1716   LD #?AB0+511
1BDC  DC                  1717   PUSHA
1BDD  04 0C               1718   LD 12,S
1BDF  DC                  1719   PUSHA
1BE0  04 0E               1720   LD 14,S
1BE2  DC                  1721   PUSHA
1BE3  D8 5A 13            1722   CALL delay_loops
1BE6  DB 02               1723   FREE 2
1BE8  DC                  1724   PUSHA
1BE9  08 04               1725   LDB #4
1BEB  D8 80 1F            1726   CALL sprintf
1BEE  DB 08               1727   FREE 8
1BF0  9C 1B               1728   LEAI 27,S
1BF2  DD                  1729   PUSHI
1BF3  D8 C0 10            1730   CALL c_puts
1BF6  DB 02               1731   FREE 2
1BF8  08 0A               1732   LDB #10
1BFA  DC                  1733   PUSHA
1BFB  08 08               1734   LDB #8
1BFD  DC                  1735   PUSHA
1BFE  00 17 1F            1736   LD #?AB0+544
1C01  DC                  1737   PUSHA
1C02  D8 8C 12            1738   CALL c_boxmsg
1C05  DB 06               1739   FREE 6
1C07  08 05               1740   LDB #5
DUNFIELD CFLEA ASSEMBLER: GPIO                                         PAGE: 31

1C09  DC                  1741   PUSHA
1C0A  08 03               1742   LDB #3
1C0C  DC                  1743   PUSHA
1C0D  00 2D 1F            1744   LD #?AB0+566
1C10  DC                  1745   PUSHA
1C11  9C 16               1746   LEAI 22,S
1C13  DD                  1747   PUSHI
1C14  08 0A               1748   LDB #10
1C16  DC                  1749   PUSHA
1C17  D8 DA 12            1750   CALL c_boxquery
1C1A  DB 0A               1751   FREE 10
1C1C  9C 1B               1752   LEAI 27,S
1C1E  DD                  1753   PUSHI
1C1F  00 45 1F            1754   LD #?AB0+590
1C22  DC                  1755   PUSHA
1C23  9C 14               1756   LEAI 20,S
1C25  DD                  1757   PUSHI
1C26  08 03               1758   LDB #3
1C28  D8 80 1F            1759   CALL sprintf
1C2B  DB 06               1760   FREE 6
1C2D  08 0F               1761   LDB #15
1C2F  DC                  1762   PUSHA
1C30  08 0F               1763   LDB #15
1C32  DC                  1764   PUSHA
1C33  9C 1F               1765   LEAI 31,S
1C35  DD                  1766   PUSHI
1C36  D8 8C 12            1767   CALL c_boxmsg
1C39  DB 06               1768   FREE 6
1C3B  00 88 13            1769   LD #5000
1C3E  DC                  1770   PUSHA
1C3F  D8 44 13            1771   CALL wait_ms
1C42  DB 02               1772   FREE 2
1C44  E0                  1773   CLR
1C45  DC                  1774   PUSHA
1C46  E0                  1775   CLR
1C47  DC                  1776   PUSHA
1C48  D8 66 10            1777   CALL c_gotoxy
1C4B  DB 04               1778   FREE 4
1C4D  E0                  1779   CLR
1C4E  A4 0A               1780   ST 10,S
1C50  D8 0D 10            1781   CALL c_clrscr
1C53                      1782  ?AB162 EQU *
1C53  9C 1B               1783   LEAI 27,S
1C55  DD                  1784   PUSHI
1C56  00 50 1F            1785   LD #?AB0+601
1C59  DC                  1786   PUSHA
1C5A  9C 04               1787   LEAI 4+0,S
1C5C  02                  1788   LD I
1C5D  DC                  1789   PUSHA
1C5E  9C 08               1790   LEAI 6+2,S
1C60  02                  1791   LD I
1C61  DC                  1792   PUSHA
1C62  9C 0C               1793   LEAI 8+4,S
1C64  02                  1794   LD I
1C65  DC                  1795   PUSHA
1C66  9C 10               1796   LEAI 10+6,S
1C68  02                  1797   LD I
1C69  DC                  1798   PUSHA
DUNFIELD CFLEA ASSEMBLER: GPIO                                         PAGE: 32

1C6A  08 06               1799   LDB #6
1C6C  D8 80 1F            1800   CALL sprintf
1C6F  DB 0C               1801   FREE 12
1C71  08 03               1802   LDB #3
1C73  DC                  1803   PUSHA
1C74  E0                  1804   CLR
1C75  DC                  1805   PUSHA
1C76  9C 1F               1806   LEAI 31,S
1C78  DD                  1807   PUSHI
1C79  D8 8C 12            1808   CALL c_boxmsg
1C7C  DB 06               1809   FREE 6
1C7E  9C 1B               1810   LEAI 27,S
1C80  DD                  1811   PUSHI
1C81  00 6A 1F            1812   LD #?AB0+627
1C84  DC                  1813   PUSHA
1C85  04 0E               1814   LD 14,S
1C87  E4                  1815   INC
1C88  A4 0E               1816   ST 14,S
1C8A  DC                  1817   PUSHA
1C8B  08 03               1818   LDB #3
1C8D  D8 80 1F            1819   CALL sprintf
1C90  DB 06               1820   FREE 6
1C92  08 28               1821   LDB #40
1C94  DC                  1822   PUSHA
1C95  08 05               1823   LDB #5
1C97  DC                  1824   PUSHA
1C98  9C 1F               1825   LEAI 31,S
1C9A  DD                  1826   PUSHI
1C9B  D8 8C 12            1827   CALL c_boxmsg
1C9E  DB 06               1828   FREE 6
1CA0  08 FA               1829   LDB #250
1CA2  DC                  1830   PUSHA
1CA3  D8 44 13            1831   CALL wait_ms
1CA6  DB 02               1832   FREE 2
1CA8  E0                  1833   CLR
1CA9  A4 08               1834   ST 8,S
1CAB                      1835  ?AB164 EQU *
1CAB  04 08               1836   LD 8,S
1CAD  88 04               1837   CMPB #4
1CAF  CC                  1838   ULT
1CB0  D5 0A               1839   SJNZ ?AB166
1CB2  D0 F1 1C            1840   JMP ?AB165
1CB5                      1841  ?AB167 EQU *
1CB5  04 08               1842   LD 8,S
1CB7  E4                  1843   INC
1CB8  A4 08               1844   ST 8,S
1CBA  D3 EF               1845   SJMP ?AB164
1CBC                      1846  ?AB166 EQU *
1CBC  04 08               1847   LD 8,S
1CBE  38 02               1848   MULB #2
1CC0  9C 00               1849   LEAI 0,S
1CC2  E8                  1850   ADAI
1CC3  DD                  1851   PUSHI
1CC4  04 0A               1852   LD 10,S
1CC6  38 02               1853   MULB #2
1CC8  9C 02               1854   LEAI 2,S
1CCA  E8                  1855   ADAI
1CCB  02                  1856   LD I
DUNFIELD CFLEA ASSEMBLER: GPIO                                         PAGE: 33

1CCC  C0 01               1857   SHL #1
1CCE  DC                  1858   PUSHA
1CCF  04 0C               1859   LD 12,S
1CD1  38 02               1860   MULB #2
1CD3  9C 04               1861   LEAI 4,S
1CD5  E8                  1862   ADAI
1CD6  02                  1863   LD I
1CD7  B8 07               1864   SHR #7
1CD9  65                  1865   OR S+
1CDA  58 FF               1866   ANDB #255
1CDC  A6                  1867   ST [S+]
1CDD  04 08               1868   LD 8,S
1CDF  DC                  1869   PUSHA
1CE0  04 0A               1870   LD 10,S
1CE2  38 02               1871   MULB #2
1CE4  9C 02               1872   LEAI 2,S
1CE6  E8                  1873   ADAI
1CE7  02                  1874   LD I
1CE8  DC                  1875   PUSHA
1CE9  D8 9C 13            1876   CALL outport
1CEC  DB 04               1877   FREE 4
1CEE  D0 B5 1C            1878   JMP ?AB167
1CF1                      1879  ?AB165 EQU *
1CF1  D0 53 1C            1880   JMP ?AB162
1CF4                      1881  ?AB163 EQU *
1CF4  DB 6B               1882   FREE 107
1CF6  D9                  1883   RET
1CF7  73 64 5F 63 6D 64 + 1884  ?AB0 FCB 115,100,95,99,109,100,58,58,37,100,44,32,37,48,52,120
1D07  25 30 34 78 2C 20 + 1885   FCB 37,48,52,120,44,32,37,48,50,120,32,114,101,116,117,114
1D17  6E 65 64 20 25 30 + 1886   FCB 110,101,100,32,37,48,50,120,10,0,115,100,95,99,109,100
1D27  3A 3A 25 64 2C 20 + 1887   FCB 58,58,37,100,44,32,37,48,52,120,37,48,52,120,44,32
1D37  25 30 32 78 20 74 + 1888   FCB 37,48,50,120,32,116,105,109,101,111,117,116,10,0,115,100
1D47  5F 72 65 73 65 74 + 1889   FCB 95,114,101,115,101,116,40,41,58,58,84,114,121,32,37,100
1D57  0A 00 25 35 75 3A + 1890   FCB 10,0,37,53,117,58,115,100,95,114,101,115,101,116,40,41
1D67  3A 3A 53 65 6E 64 + 1891   FCB 58,58,83,101,110,100,105,110,103,32,67,77,68,48,46,46
1D77  2E 0A 00 25 35 75 + 1892   FCB 46,10,0,37,53,117,58,115,100,95,114,101,115,101,116,40
1D87  29 3A 3A 53 65 6E + 1893   FCB 41,58,58,83,101,110,100,105,110,103,32,67,77,68,56,46
1D97  2E 2E 0A 00 25 35 + 1894   FCB 46,46,10,0,37,53,117,58,115,100,95,114,101,115,101,116
1DA7  28 29 3A 3A 52 65 + 1895   FCB 40,41,58,58,82,101,99,101,105,118,105,110,103,32,67,77
1DB7  44 38 20 70 61 79 + 1896   FCB 68,56,32,112,97,121,108,111,97,100,46,46,46,10,0,37
1DC7  35 75 3A 73 64 5F + 1897   FCB 53,117,58,115,100,95,114,101,115,101,116,40,41,58,58,83
1DD7  65 6E 64 69 6E 67 + 1898   FCB 101,110,100,105,110,103,32,65,67,77,68,52,49,46,46,46
1DE7  0A 00 25 35 75 3A + 1899   FCB 10,0,37,53,117,58,115,100,95,114,101,115,101,116,40,41
1DF7  3A 3A 53 65 6E 64 + 1900   FCB 58,58,83,101,110,100,105,110,103,32,67,77,68,53,56,46
1E07  2E 2E 0A 00 25 35 + 1901   FCB 46,46,10,0,37,53,117,58,115,100,95,114,101,115,101,116
1E17  28 29 3A 3A 53 65 + 1902   FCB 40,41,58,58,83,101,110,100,105,110,103,32,67,77,68,49
1E27  36 2E 2E 2E 0A 00 + 1903   FCB 54,46,46,46,10,0,37,53,117,58,115,100,95,114,101,115
1E37  65 74 28 29 3A 3A + 1904   FCB 101,116,40,41,58,58,83,101,110,100,105,110,103,32,67,77
1E47  44 39 2E 2E 2E 0A + 1905   FCB 68,57,46,46,46,10,0,37,53,117,58,115,100,95,114,101
1E57  73 65 74 28 29 3A + 1906   FCB 115,101,116,40,41,58,58,82,101,97,100,105,110,103,32,67
1E67  4D 44 39 20 70 61 + 1907   FCB 77,68,57,32,112,97,121,108,111,97,100,46,46,46,10,0
1E77  25 35 75 3A 73 64 + 1908   FCB 37,53,117,58,115,100,95,114,101,115,101,116,40,41,58,58
1E87  49 6E 69 74 20 64 + 1909   FCB 73,110,105,116,32,100,111,110,101,46,46,46,10,0,115,100
1E97  5F 72 65 73 65 74 + 1910   FCB 95,114,101,115,101,116,40,41,32,61,61,32,37,120,44,32
1EA7  25 30 34 78 2C 20 + 1911   FCB 37,48,52,120,44,32,37,48,52,120,44,32,37,48,52,120
1EB7  2C 20 25 30 34 78 + 1912   FCB 44,32,37,48,52,120,10,0,99,115,100,91,37,50,100,93
1EC7  20 3D 20 25 30 32 + 1913   FCB 32,61,32,37,48,50,120,10,0,115,100,95,115,101,99,116
1ED7  6F 72 73 5B 5D 20 + 1914   FCB 111,114,115,91,93,32,61,61,32,123,32,37,48,52,120,44
DUNFIELD CFLEA ASSEMBLER: GPIO                                         PAGE: 34

1EE7  20 25 30 34 78 20 + 1915   FCB 32,37,48,52,120,32,125,10,0,37,48,50,120,32,0,108
1EF7  6F 6F 70 73 20 70 + 1916   FCB 111,111,112,115,32,112,101,114,32,109,115,32,61,61,32,37
1F07  75 20 28 25 75 29 + 1917   FCB 117,32,40,37,117,41,0,120,32,61,61,32,37,117,10,0
1F17  42 6F 78 20 74 65 + 1918   FCB 66,111,120,32,116,101,120,116,32,103,111,101,115,32,104,101
1F27  72 65 20 65 68 00 + 1919   FCB 114,101,32,101,104,0,72,101,108,108,111,32,119,104,97,116
1F37  27 73 20 79 6F 75 + 1920   FCB 39,115,32,121,111,117,114,32,110,97,109,101,58,0,72,101
1F47  6C 6C 6F 20 27 25 + 1921   FCB 108,108,111,32,39,37,115,39,0,118,97,108,115,58,32,37
1F57  32 78 2C 20 25 32 + 1922   FCB 50,120,44,32,37,50,120,44,32,37,50,120,44,32,37,50
1F67  78 0A 00 4C 6F 6F + 1923   FCB 120,10,0,76,111,111,112,115,58,32,37,53,117,0
1F75                      1924  *
1F75                      1925  * Formatted print to the console device: printf(format, args ...)
1F75                      1926  *
1F75  38 02               1927  printf	MULB	#2		Word entries
1F77  9C 00               1928  	LEAI	,S		Point to stack
1F79  E8                  1929  	ADAI			Point to argument
1F7A  00 33 21            1930  	LD	#putch		Point to output func
1F7D  D0 D8 1F            1931  	JMP	format		Format it
1F80                      1932  *50000 22/5/2026
1F80                      1933  *
1F80                      1934  * Formatted print to a string: sprintf(string, format, args ...)
1F80                      1935  *
1F80  38 02               1936  sprintf	MULB	#2		Word entries
1F82  9C 00               1937  	LEAI	,S		Point to stack
1F84  E8                  1938  	ADAI			Point to argument
1F85  02                  1939  	LD	I		Get output pointer
1F86  A1 00 00            1940  	ST	?temp		Save for later
1F89  E7                  1941  	TIA			Point to it
1F8A  E5                  1942  	DEC			Backup
1F8B  E5                  1943  	DEC			Backup
1F8C  E6                  1944  	TAI			Back to index
1F8D  00 96 1F            1945  	LD	#?AD1		Output functino
1F90  D8 D8 1F            1946  	CALL	format		Format it
1F93  E0                  1947  	CLR			Get zero
1F94  D3 02               1948  	SJMP	?AD2		And write it
1F96  04 02               1949  ?AD1	LD	2,S		Get character
1F98  91 00 00            1950  ?AD2	LDI	?temp		Get output pointer
1F9B  AA                  1951  	STB	I		Write to memory
1F9C  9B 01               1952  	LEAI	1,I		Advance
1F9E  B1 00 00            1953  	STI	?temp		Resave
1FA1  D9                  1954  	RET
1FA2                      1955  *50000 22/5/2026
1FA2                      1956  *
1FA2                      1957  * Set memory to a specified value: memset(block, value, size)
1FA2                      1958  *
1FA2  94 06               1959  memset	LDI	6,S		Get pointer
1FA4  04 02               1960  ?AE1	LD	2,S		Get size
1FA6  D4 21               1961  	SJZ	?AE2		Zero, exit
1FA8  E5                  1962  	DEC			Backup
1FA9  A4 02               1963  	ST	2,S		Resave
1FAB  04 04               1964  	LD	4,S		Get value
1FAD  AA                  1965  	STB	I		Write to memory
1FAE  9B 01               1966  	LEAI	1,I		Advance
1FB0  D3 F2               1967  	SJMP	?AE1		And proceed
1FB2                      1968  *
1FB2                      1969  * Copy memory: memcpy(dest, source, size)
1FB2                      1970  *
1FB2  04 02               1971  memcpy	LD	2,S		Get size
1FB4  D4 13               1972  	SJZ	?AE2		Zero, exit
DUNFIELD CFLEA ASSEMBLER: GPIO                                         PAGE: 35

1FB6  E5                  1973  	DEC			Reduce count
1FB7  A4 02               1974  	ST	2,S		Resave
1FB9  94 04               1975  	LDI	4,S		Get source
1FBB  0A                  1976  	LDB	I		Get byte
1FBC  9B 01               1977  	LEAI	1,I		Advance
1FBE  B4 04               1978  	STI	4,S		Resave
1FC0  94 06               1979  	LDI	6,S		Get dest
1FC2  AA                  1980  	STB	I		Write byte
1FC3  9B 01               1981  	LEAI	1,I		Advance
1FC5  B4 06               1982  	STI	6,S		Resave
1FC7  D3 E9               1983  	SJMP	memcpy		And proceed
1FC9  D9                  1984  ?AE2	RET
1FCA                      1985  *50000 22/5/2026
1FCA                      1986  *
1FCA                      1987  * Determine length of string: strlen(string)
1FCA                      1988  *
1FCA  94 02               1989  strlen	LDI	2,S		; Get string ptr
1FCC  0A                  1990  ?AF1	LDB	I		; Get byte from string
1FCD  D1 D4 1F            1991  	JZ	?AF2		; We are at end
1FD0  9B 01               1992  	LEAI	1,I		; Skip to next
1FD2  D3 F8               1993  	SJMP	?AF1		; And proceed
1FD4  E7                  1994  ?AF2	TIA			; Get pointer
1FD5  24 02               1995  	SUB	2,S		; Compute actual length
1FD7  D9                  1996  	RET
1FD8                      1997  *50000 22/5/2026
1FD8                      1998  *
1FD8                      1999  * Format to "printf" output: A=Output Function, I = Argument List
1FD8                      2000  *
1FD8  DC                  2001  format	PUSHA			Save output function pointer
1FD9  DD                  2002  	PUSHI			Save argument pointer
1FDA  DA 0A               2003  	ALLOC	10		Save  flag variable
1FDC                      2004  * Local variable & argument offsets
000C                      2005  ?AG1	EQU	12		Pointer to output function
000A                      2006  ?AG2	EQU	10		Pointer to argument list
0004                      2007  ?AG3	EQU	4		Buffer for number conversions (6 bytes)
0002                      2008  ?AG4	EQU	2		Temporary locations
0001                      2009  ?AG5	EQU	1		Character count
0000                      2010  ?AG6	EQU	0		Formatting controls
1FDC                      2011  *
1FDC  94 0A               2012  	LDI	?AG2,S		Get arg pointer
1FDE  92                  2013  	LDI	I		Get format string
1FDF  0A                  2014  ?AG7	LDB	I		Get character from string
1FE0  D4 12               2015  	SJZ	?AG8		Exit if end
1FE2  88 25               2016  	CMPB	#'%'		Format character
1FE4  D5 12               2017  	SJNZ	?AG10		Yes, handle it
1FE6  0A                  2018  	LDB	I		Get char back
1FE7  9B 01               2019  	LEAI	1,I		Advance pointer
1FE9  DD                  2020  	PUSHI			Save Index
1FEA  DC                  2021  	PUSHA			Pass character
1FEB  04 10               2022  	LD	4+?AG1,S		Get output function
1FED  D8 F7 1F            2023  	CALL	?AG9		Output the character
1FF0  05                  2024  	LD	S+		Clean stack
1FF1  95                  2025  	LDI	S+		Get Index back
1FF2  D3 EB               2026  	SJMP	?AG7		And proceed
1FF4  DB 0E               2027  ?AG8	FREE	14		Release stack
1FF6  D9                  2028  	RET
1FF7                      2029  * Call output function in A
1FF7  D6                  2030  ?AG9	IJMP			Call function
DUNFIELD CFLEA ASSEMBLER: GPIO                                         PAGE: 36

1FF8                      2031  * Format character located
1FF8  9B 01               2032  ?AG10	LEAI	1,I		Skip to next
1FFA  E0                  2033  	CLR			Begin with zero
1FFB  A4 02               2034  	ST	?AG4,S		Save for later
1FFD                      2035  * Check for leading '-' = Left justify
1FFD  AC 00               2036  	STB	?AG6,S		Init. flag
1FFF  AC 01               2037  	STB	?AG5,S		Init. count
2001  0A                  2038  	LDB	I		Get char
2002  88 2D               2039  	CMPB	#'-'		Minus?
2004  D4 06               2040  	SJZ	?AG11		No, try next
2006  9B 01               2041  	LEAI	1,I		Advance pointer
2008  08 80               2042  	LDB	#%10000000	Set justify flag
200A  AC 00               2043  	STB	?AG6,S		Resave
200C                      2044  * Check for leading '0' = Zero fill
200C  0A                  2045  ?AG11	LDB	I		Get char back
200D  88 30               2046  	CMPB	#'0'		Zero fill?
200F  D4 08               2047  	SJZ	?AG12		No, try next
2011  9B 01               2048  	LEAI	1,I		Advance
2013  0C 00               2049  	LDB	?AG6,S		Get value
2015  68 40               2050  	ORB	#%01000000	Set zero fill flag
2017  AC 00               2051  	STB	?AG6,S		Resave
2019                      2052  * Get field width
2019  0A                  2053  ?AG12	LDB	I		Get character
201A  28 30               2054  	SUBB	#'0'		Convert to binary
201C  DC                  2055  	PUSHA			Save
201D  88 0A               2056  	CMPB	#10		In range?
201F  CC                  2057  	ULT			Must be less than
2020  D4 0B               2058  	SJZ	?AG13		Nope
2022  9B 01               2059  	LEAI	1,I		Skip digit
2024  04 04               2060  	LD	2+?AG4,S		Get old value
2026  38 0A               2061  	MULB	#10		x10
2028  15                  2062  	ADD	S+		Include new
2029  A4 02               2063  	ST	?AG4,S		Resave
202B  D3 EC               2064  	SJMP	?AG12		Do them all
202D  05                  2065  ?AG13	LD	S+		Clear stack
202E  04 02               2066  	LD	?AG4,S		Get value
2030  6C 00               2067  	ORB	?AG6,S		Include previous flags
2032  AC 00               2068  	STB	?AG6,S		Resave
2034                      2069  * Lookup character & dispatch handler
2034  DD                  2070  	PUSHI			Save format pointer
2035  04 0C               2071  	LD	2+?AG2,S		Get argptr
2037  E5                  2072  	DEC			Backup
2038  E5                  2073  	DEC			Backup
2039  A4 0C               2074  	ST	2+?AG2,S		Resave
203B  E6                  2075  	TAI			Address
203C  02                  2076  	LD	I		Get value
203D  A4 04               2077  	ST	2+?AG4,S		Resave
203F  0F                  2078  	LDB	[S]		Get next character
2040  99 44 20            2079  	LEAI	?AG14		Point to table
2043  D7                  2080  	SWITCH			Lookup & execute
2044  60 20 6F 00         2081  ?AG14	FDB	?AG15,'o'		Octal number
2048  64 20 64 00         2082  	FDB	?AG16,'d'		Decimal number
204C  84 20 75 00         2083  	FDB	?AG17,'u'		Unsigned number
2050  88 20 78 00         2084  	FDB	?AG18,'x'		Hexidecimal number
2054  DE 20 63 00         2085  	FDB	?AG26,'c'		Character output
2058  E9 20 73 00         2086  	FDB	?AG28,'s'		String output
205C  00 00 E0 20         2087  	FDB	0,?AG27		Ignore it
2060                      2088  * '%o' - Octal number
DUNFIELD CFLEA ASSEMBLER: GPIO                                         PAGE: 37

2060  08 08               2089  ?AG15	LDB	#8		Base 8
2062  D3 26               2090  	SJMP	?AG19		Do number
2064                      2091  * '%d' - signed Decimal number
2064  04 04               2092  ?AG16	LD	2+?AG4,S		Get value
2066  50 00 80            2093  	AND	#$8000		Negatve?
2069  D4 19               2094  	SJZ	?AG17		Nothing special
206B  08 2D               2095  	LDB	#'-'		Minus size
206D  DC                  2096  	PUSHA			Pass to function
206E  04 10               2097  	LD	4+?AG1,S		Get output function
2070  D8 F7 1F            2098  	CALL	?AG9		Call function
2073  05                  2099  	LD	S+		Clean stack
2074  04 04               2100  	LD	2+?AG4,S		Get value
2076  E2                  2101  	NEG			Negate
2077  A4 04               2102  	ST	2+?AG4,S		And prcoeed
2079  0C 02               2103  	LDB	2+?AG6,S		Get length
207B  58 7F               2104  	ANDB	#%001111111	Free format?
207D  D4 05               2105  	SJZ	?AG17		Yes, ignore
207F  0C 02               2106  	LDB	2+?AG6,S		Get value back
2081  E5                  2107  	DEC			Adjust for '-'
2082  AC 02               2108  	STB	2+?AG6,S		Resave
2084                      2109  * '%u' - Unsigned decimal number
2084  08 0A               2110  ?AG17	LDB	#10		Base 10 output
2086  D3 02               2111  	SJMP	?AG19		Do number
2088                      2112  * '%x' - heXidecimal number
2088  08 10               2113  ?AG18	LDB	#16		Base 16 output
208A                      2114  * Output a number in the specified number base
208A  AC 06               2115  ?AG19	STB	2+?AG3,S		Save number base
208C  9C 0C               2116  	LEAI	6+2+?AG3,S	Point to END of buffer
208E  E7                  2117  ?AG20	TIA			Get index
208F  E5                  2118  	DEC			Backup
2090  E6                  2119  	TAI			Set index
2091  0C 03               2120  	LDB	2+?AG5,S		Get count
2093  E4                  2121  	INC			Advance
2094  AC 03               2122  	STB	2+?AG5,S		Resave
2096  04 04               2123  	LD	2+?AG4,S		Get value
2098  4C 06               2124  	DIVB	2+?AG3,S		Divide by 10
209A  DC                  2125  	PUSHA			Save quotient
209B  E9                  2126  	ALT			Get remainder
209C  18 30               2127  	ADDB	#'0'		Convert to ASCII
209E  AA                  2128  	STB	I		Write to stack
209F  88 39               2129  	CMPB	#'9'		Is it HEX?
20A1  CE                  2130  	UGT			Complete test
20A2  D4 04               2131  	SJZ	?AG21		Yes it is
20A4  0A                  2132  	LDB	I		Get char back
20A5  18 07               2133  	ADDB	#7		Adjust
20A7  AA                  2134  	STB	I		Resave char
20A8  05                  2135  ?AG21	LD	S+		Get quotient
20A9  A4 04               2136  	ST	2+?AG4,S		Save new value
20AB  D5 E1               2137  	SJNZ	?AG20		Do them all
20AD                      2138  * At this point, I = pointer, ?5=Length
20AD  0C 03               2139  ?AG22	LDB	2+?AG5,S		Get count
20AF  AC 05               2140  	STB	3+?AG4,S		Set extra count
20B1  0C 02               2141  	LDB	2+?AG6,S		Get flag
20B3  58 80               2142  	ANDB	#%10000000	Left justify?
20B5  D5 03               2143  	SJNZ	?AG23		Yes, don't fill
20B7  D8 FB 20            2144  	CALL	?AG31		Do any pre-output
20BA  0C 05               2145  ?AG23	LDB	3+?AG4,S		Get count
20BC  D4 11               2146  	SJZ	?AG24		All done, exit
DUNFIELD CFLEA ASSEMBLER: GPIO                                         PAGE: 38

20BE  E5                  2147  	DEC			Reduce count
20BF  AC 05               2148  	STB	3+?AG4,S		Resave
20C1  0A                  2149  	LDB	I		Get character from string
20C2  9B 01               2150  	LEAI	1,I		Advance
20C4  DD                  2151  	PUSHI			Save it
20C5  DC                  2152  	PUSHA			Pass character
20C6  04 12               2153  	LD	6+?AG1,S		Get output function
20C8  D8 F7 1F            2154  	CALL	?AG9		Output character
20CB  05                  2155  	LD	S+		Clean stack
20CC  95                  2156  	LDI	S+		Restore I
20CD  D3 EB               2157  	SJMP	?AG23		Go again
20CF  0C 02               2158  ?AG24	LDB	2+?AG6,S		Get flag
20D1  58 80               2159  	ANDB	#%10000000	Left justify
20D3  D4 03               2160  	SJZ	?AG25		No, skip it
20D5  D8 FB 20            2161  	CALL	?AG31		Post justify
20D8  95                  2162  ?AG25	LDI	S+		Restore format string
20D9  9B 01               2163  	LEAI	1,I		Advance pointer
20DB  D0 DF 1F            2164  	JMP	?AG7		And proceed
20DE                      2165  * '%c' - output character
20DE  0C 04               2166  ?AG26	LDB	2+?AG4,S		Get character
20E0  9C 06               2167  ?AG27	LEAI	2+?AG3,S		Point to buffer
20E2  AA                  2168  	STB	I		Save it
20E3  08 01               2169  	LDB	#1		Get 1
20E5  AC 03               2170  	STB	2+?AG5,S
20E7  D3 C4               2171  	SJMP	?AG22
20E9                      2172  * '%s' - output string
20E9  94 04               2173  ?AG28	LDI	2+?AG4,S		Get string pointer
20EB  0A                  2174  ?AG29	LDB	I		Get character
20EC  D4 09               2175  	SJZ	?AG30		End of string
20EE  9B 01               2176  	LEAI	1,I		Skip to next
20F0  0C 03               2177  	LDB	2+?AG5,S		Get count
20F2  E4                  2178  	INC			Advance
20F3  AC 03               2179  	STB	2+?AG5,S		Resave count
20F5  D3 F4               2180  	SJMP	?AG29		And proceed
20F7  94 04               2181  ?AG30	LDI	2+?AG4,S		Get pointer back
20F9  D3 B2               2182  	SJMP	?AG22		And output
20FB                      2183  * Perform pre-output justify
20FB  0C 04               2184  ?AG31	LDB	4+?AG6,S		Get flag
20FD  58 3F               2185  	ANDB	#%00111111	Save length only
20FF  D4 23               2186  	SJZ	?AG35		No justify
2101  AC 06               2187  	STB	4+?AG4,S		Save for later
2103  DD                  2188  	PUSHI			Save index
2104  0C 07               2189  ?AG32	LDB	6+?AG5,S		Get count
2106  8C 08               2190  	CMPB	6+?AG4,S		Are we over
2108  CF                  2191  	UGE			Complete test
2109  D5 18               2192  	SJNZ	?AG34		Yes, exit
210B  0C 06               2193  	LDB	6+?AG6,S		Get flag
210D  58 40               2194  	ANDB	#%01000000	Zero fill?
210F  D4 02               2195  	SJZ	?AG33		No, use ' '
2111  08 10               2196  	LDB	#'0'-' '	Get value
2113  18 20               2197  ?AG33	ADDB	#' '		Convert to char
2115  DC                  2198  	PUSHA			Pass character
2116  04 14               2199  	LD	8+?AG1,S		Get output function
2118  D8 F7 1F            2200  	CALL	?AG9		Output character
211B  05                  2201  	LD	S+		Clean stack
211C  0C 08               2202  	LDB	6+?AG4,S		Get remaining width
211E  E5                  2203  	DEC			Reduce
211F  AC 08               2204  	STB	6+?AG4,S		Resave
DUNFIELD CFLEA ASSEMBLER: GPIO                                         PAGE: 39

2121  D3 E1               2205  	SJMP	?AG32		Do next
2123  95                  2206  ?AG34	LDI	S+		Restore index
2124  D9                  2207  ?AG35	RET
2125                      2208  *50000 22/5/2026
2125                      2209  *
2125                      2210  * Write a string to the console: putstr(string)
2125                      2211  *
2125  94 02               2212  putstr	LDI	2,S		Get argument
2127  0A                  2213  ?putstr	LDB	I		Get char
2128  D4 37               2214  	SJZ	?AH2		Exit
212A  9B 01               2215  	LEAI	1,I		Advance
212C  DC                  2216  	PUSHA			Pass parm
212D  D8 35 21            2217  	CALL	?putch		Output it
2130  05                  2218  	LD	S+		Clean stack
2131  D3 F4               2219  	SJMP	?putstr		And proceed
2133                      2220  *
2133                      2221  * Output character to console with newline translation: putch(c)
2133                      2222  *
2133  04 02               2223  putch	LD	2,S		Get character
2135  80 0A 00            2224  ?putch	CMP	#$0A		Newline?
2138  D4 05               2225  	SJZ	putchr		No, don't process
213A  08 0D               2226  	LDB	#$0D		Get RETURN
213C  D8 41 21            2227  	CALL	?putchr		Output it
213F                      2228  *
213F                      2229  * Output 'raw' character to console: putchr(c)
213F                      2230  *
213F  04 02               2231  putchr	LD	2,S		Get character
2141  EA 00               2232  ?putchr	OUT	0		Write to console
2143  D9                  2233  	RET
2144                      2234  *
2144                      2235  * Read a character from console with newline translation: getch()
2144                      2236  *
2144  D8 51 21            2237  getch	CALL	chkch		Test for character ready
2147  D4 FB               2238  	SJZ	getch		Wait for it
2149  D9                  2239  	RET
214A                      2240  *
214A                      2241  * Read 'raw' character from console: getchr()
214A                      2242  *
214A  EB 00               2243  getchr	IN	0		Read console port
214C  E4                  2244  	INC			Test for character
214D  D4 FB               2245  	SJZ	getchr		Wait for character
214F  E5                  2246  	DEC			Restore proper character
2150  D9                  2247  	RET
2151                      2248  *
2151                      2249  * Check for character from the console with translation: chkch()
2151                      2250  *
2151  EB 00               2251  chkch	IN	0		Read port 0
2153  E4                  2252  	INC			Test for char
2154  D4 0B               2253  	SJZ	?AH2		None, exit
2156  E5                  2254  	DEC			Restore proper char
2157  DC                  2255  	PUSHA			Save for later
2158  88 0D               2256  	CMPB	#$0D		RETURN?
215A  D4 04               2257  	SJZ	?AH1		No, its OK
215C  05                  2258  	LD	S+		Clean stack
215D  08 0A               2259  	LDB	#$0A		Get NEWLINE
215F  D9                  2260  	RET
2160  05                  2261  ?AH1	LD	S+		Get char back
2161  D9                  2262  ?AH2	RET
DUNFIELD CFLEA ASSEMBLER: GPIO                                         PAGE: 40

2162                      2263  *
2162                      2264  * Check for 'raw' character from the console: chkchr()
2162                      2265  *
2162  EB 00               2266  chkchr	IN	0		Read port 0
2164  D9                  2267  	RET
2165                      2268  *
2165                      2269  * Get string from console (with editing): getstr(string, size)
2165                      2270  *
2165  E0                  2271  getstr	CLR			Zero length
2166  DC                  2272  	PUSHA			Save on stack
2167  D8 4A 21            2273  ?AH3	CALL	getchr		Get a character
216A  90 6E 21            2274  	LDI	#?AH4		Point to table
216D  D7                  2275  	SWITCH			Dispatch
216E  97 21 08 00         2276  ?AH4	FDB	?AH6,$08		Backspace
2172  97 21 7F 00         2277  	FDB	?AH6,$7F		Delete
2176  A6 21 0D 00         2278  	FDB	?AH7,$0D		Return
217A  00 00 7E 21         2279  	FDB	0,?AH5		Default
217E                      2280  * Normal character
217E  A9 00 00            2281  ?AH5	STB	?temp		Save for later
2181  04 00               2282  	LD	,S		Get current position
2183  84 04               2283  	CMP	4,S		Are we OK
2185  CF                  2284  	UGE			Test for over
2186  D5 DF               2285  	SJNZ	?AH3		Ignore
2188  94 06               2286  	LDI	6,S		Get pointer
218A  05                  2287  	LD	S+		Get size
218B  E8                  2288  	ADAI			Adjust pointer
218C  E4                  2289  	INC			Advance count
218D  DC                  2290  	PUSHA			Resave
218E  09 00 00            2291  	LDB	?temp		Get char back
2191  AA                  2292  	STB	I		Save in buffer
2192  D8 41 21            2293  	CALL	?putchr		Echo it
2195  D3 D0               2294  	SJMP	?AH3		And proceed
2197                      2295  * Backspace & delete
2197  04 00               2296  ?AH6	LD	,S		Get count
2199  D4 CC               2297  	SJZ	?AH3		At zero, ignore
219B  E5                  2298  	DEC			Backup
219C  A4 00               2299  	ST	,S		Resave
219E  90 B0 21            2300  	LDI	#?AH8		Point to message
21A1  D8 27 21            2301  	CALL	?putstr		Output
21A4  D3 C1               2302  	SJMP	?AH3		And proceed
21A6                      2303  * RETURN, terminate entry
21A6  94 06               2304  ?AH7	LDI	6,S		Get buffer pointer
21A8  05                  2305  	LD	S+		Get count
21A9  E8                  2306  	ADAI			Adjust pointer
21AA  E0                  2307  	CLR			Get zero
21AB  AA                  2308  	STB	I		Terminate buffer
21AC  08 0A               2309  	LDB	#$0A		Newline
21AE  D3 91               2310  	SJMP	?putchr		Output
21B0  08 20 08 00         2311  ?AH8	FCB	$08,' ',$08,0
21B4                      2312  *50000 22/5/2026
21B4                      2313  *
21B4                      2314  * DDS MICRO-C C-FLEA Runtime Library - Middle file
21B4                      2315  *
21B4                      2316  * Copyright 1991-2005 Dave Dunfield
21B4                      2317  * All rights reserved.
21B4                      2318  *
0000                      2319  	ORG	$0000		Start RAM based variables here
0000                      2320  ?temp	RMB	2		Temporary location used by compiler
DUNFIELD CFLEA ASSEMBLER: GPIO                                         PAGE: 41

0002                      2321  *50000 22/5/2026
0002                      2322  spi_cs_mask RMB 2
0004                      2323  spi_sck_mask RMB 2
0006                      2324  spi_miso_mask RMB 2
0008                      2325  spi_mosi_mask RMB 2
000A                      2326  spi_cs_mask_ds RMB 2
000C                      2327  spi_sck_mask_ds RMB 2
000E                      2328  spi_miso_mask_d RMB 2
0010                      2329  spi_mosi_mask_d RMB 2
0012                      2330  spi_port RMB 2
0014                      2331  sd_is_init RMB 2
0016                      2332  sd_is_hc RMB 2
0018                      2333  sd_port RMB 2
001A                      2334  sd_cs_pin RMB 2
001C                      2335  sd_sck_pin RMB 2
001E                      2336  sd_miso_pin RMB 2
0020                      2337  sd_mosi_pin RMB 2
0022                      2338  sd_clk RMB 2
0024                      2339  sd_sectors RMB 4
0028                      2340  sd_csd RMB 18
003A                      2341  sec RMB 512
023A                      2342  *
023A                      2343  * DDS MICRO-C C-FLEA Runtime Library - Suffix file
023A                      2344  *
023A                      2345  * Copyright 1991-2005 Dave Dunfield
023A                      2346  * All rights reserved.
023A                      2347  *
023A                      2348  ?heap	EQU	*		Beginning of unused RAM
023A                      2349  *50000 22/5/2026
DUNFIELD CFLEA ASSEMBLER: GPIO                                         PAGE: 42

SYMBOL TABLE:

?AB0    -1CF7   ?AB1    -105F   ?AB10   -10DC   ?AB100  -1739   ?AB101  -172A
?AB102  -1723   ?AB103  -1762   ?AB104  -1787   ?AB105  -17A7   ?AB106  -17B8
?AB107  -17C9   ?AB108  -17DA   ?AB109  -17EC   ?AB11   -10E1   ?AB110  -1829
?AB111  -17FE   ?AB112  -17F7   ?AB113  -1811   ?AB114  -1826   ?AB115  -1831
?AB116  -1847   ?AB117  -18B9   ?AB118  -1859   ?AB119  -1852   ?AB12   -10E9
?AB120  -186C   ?AB121  -18B6   ?AB122  -18B0   ?AB123  -18AF   ?AB124  -18C1
?AB125  -18EB   ?AB126  -18EB   ?AB127  -190D   ?AB128  -192D   ?AB129  -19B1
?AB13   -10EB   ?AB130  -19C5   ?AB131  -19C2   ?AB132  -19CF   ?AB133  -19E3
?AB134  -19F0   ?AB135  -19FD   ?AB136  -1A0A   ?AB137  -1A17   ?AB138  -1A24
?AB139  -1A31   ?AB14   -10FB   ?AB140  -1A3E   ?AB141  -1A43   ?AB142  -1B18
?AB143  -1A84   ?AB144  -1AAE   ?AB145  -1A95   ?AB146  -1A8E   ?AB147  -1ADA
?AB148  -1B18   ?AB149  -1AEC   ?AB15   -1151   ?AB150  -1AE5   ?AB151  -1B15
?AB152  -1B51   ?AB153  -1BA9   ?AB154  -1B54   ?AB155  -1BA6   ?AB156  -1B66
?AB157  -1B5F   ?AB158  -1BAC   ?AB159  -1BCE   ?AB16   -1122   ?AB160  -1BBD
?AB161  -1BB6   ?AB162  -1C53   ?AB163  -1CF4   ?AB164  -1CAB   ?AB165  -1CF1
?AB166  -1CBC   ?AB167  -1CB5   ?AB17   -111F   ?AB18   -114E   ?AB19   -1136
?AB2    -105C   ?AB20   -112C   ?AB21   -1151   ?AB22   -114E   ?AB23   -114E
?AB24   -116C   ?AB25   -11AB   ?AB26   -117D   ?AB27   -1176   ?AB28   -1181
?AB29   -11A8   ?AB3    -1065   ?AB30   -1192   ?AB31   -118B   ?AB32   -11FD
?AB33   -1237   ?AB34   -120E   ?AB35   -1207   ?AB36   -123D   ?AB37   -1277
?AB38   -124E   ?AB39   -1247   ?AB4    -1082   ?AB40   -1344   ?AB41   -1359
?AB42   -136E   ?AB43   -1390   ?AB44   -1397   ?AB45   -138C   ?AB46   -1390
?AB47   -1399   ?AB48   -13D2   ?AB49   -13BE   ?AB5    -10A7   ?AB50   -13A2
?AB51   -13A9   ?AB52   -13B0   ?AB53   -13B7   ?AB54   -1409   ?AB55   -13F5
?AB56   -13D9   ?AB57   -13E0   ?AB58   -13E7   ?AB59   -13EE   ?AB6    -10BF
?AB60   -1444   ?AB61   -1430   ?AB62   -1410   ?AB63   -1418   ?AB64   -1420
?AB65   -1428   ?AB66   -14C3   ?AB67   -14C2   ?AB68   -14DB   ?AB69   -14DA
?AB7    -10BF   ?AB70   -14ED   ?AB71   -154E   ?AB72   -14FE   ?AB73   -14F7
?AB74   -150E   ?AB75   -150D   ?AB76   -1538   ?AB77   -1537   ?AB78   -1550
?AB79   -15E4   ?AB8    -10C0   ?AB80   -1627   ?AB81   -15F6   ?AB82   -15EF
?AB83   -1624   ?AB84   -1641   ?AB85   -1649   ?AB86   -166F   ?AB87   -165B
?AB88   -1654   ?AB89   -166C   ?AB9    -10D6   ?AB90   -167D   ?AB91   -16C0
?AB92   -1680   ?AB93   -16A7   ?AB94   -1691   ?AB95   -168A   ?AB96   -16C7
?AB97   -16F5   ?AB98   -196D   ?AB99   -1719   ?AD1    -1F96   ?AD2    -1F98
?AE1    -1FA4   ?AE2    -1FC9   ?AF1    -1FCC   ?AF2    -1FD4   ?AG1    -000C
?AG10   -1FF8   ?AG11   -200C   ?AG12   -2019   ?AG13   -202D   ?AG14   -2044
?AG15   -2060   ?AG16   -2064   ?AG17   -2084   ?AG18   -2088   ?AG19   -208A
?AG2    -000A   ?AG20   -208E   ?AG21   -20A8   ?AG22   -20AD   ?AG23   -20BA
?AG24   -20CF   ?AG25   -20D8   ?AG26   -20DE   ?AG27   -20E0   ?AG28   -20E9
?AG29   -20EB   ?AG3    -0004   ?AG30   -20F7   ?AG31   -20FB   ?AG32   -2104
?AG33   -2113   ?AG34   -2123   ?AG35   -2124   ?AG4    -0002   ?AG5    -0001
?AG6    -0000   ?AG7    -1FDF   ?AG8    -1FF4   ?AG9    -1FF7   ?AH1    -2160
?AH2    -2161   ?AH3    -2167   ?AH4    -216E   ?AH5    -217E   ?AH6    -2197
?AH7    -21A6   ?AH8    -21B0   ?heap   -023A   ?putch  -2135   ?putchr -2141
?putstr -2127   ?temp   -0000   c_box   -1154   c_boxmsg-128C   c_boxquery              -12DA
c_clrscr-100D   c_getc  -10DA   c_gets  -10ED   c_gotoxy-1066   c_putc  -1073
c_puts  -10C0   c_rewind-103E   c_scroll-101D   c_serin -10D7   chkch   -2151
chkchr  -2162   delay_calibrate         -1364   delay_loops             -135A
delay_loops_top         -135E   dirport -13D3   exit    -100B   format  -1FD8
getch   -2144   getchr  -214A   getstr  -2165   inport  -140A   main    -1A45
memcpy  -1FB2   memset  -1FA2   outport -139C   printf  -1F75   putch   -2133
putchr  -213F   putstr  -2125   remap   -19D1   sd_clk  -0022   sd_cmd  -1575
sd_cs_pin               -001A   sd_csd  -0028   sd_init -1553   sd_is_hc-0016
sd_is_init              -0014   sd_miso_pin             -001E   sd_mosi_pin             -0020
sd_port -0018   sd_read_block           -1644   sd_read_sector          -1970
sd_reset-16C2   sd_sck_pin              -001C   sd_sectors              -0024
sec     -003A   since_us-133F   spi_cs_mask             -0002
spi_cs_mask_ds          -000A   spi_miso_mask           -0006
spi_miso_mask_d         -000E   spi_mosi_mask           -0008
spi_mosi_mask_d         -0010   spi_port-0012   spi_sck_mask            -0004
spi_sck_mask_ds         -000C   spi_set_cs              -14B5   spi_set_sck             -14CD
spi_setup               -1445   spi_transfer            -14E5   sprintf -1F80
strlen  -1FCA   wait_ms -1344   wait_us -1335   wait_us_top             -1337
