DUNFIELD CFLEA ASSEMBLER: GPIO                                         PAGE: 1

0000                         1  *#cpu CFLEA
0000                         2  *
0000                         3  * DDS MICRO-C C-FLEA Runtime Library - Prefix file
0000                         4  *
0000                         5  * Copyright 1991-2005 Dave Dunfield
0000                         6  * All rights reserved.
0000                         7  *
1000                         8  	ORG	$1000		Place code in memory here
1000                         9  * Begin execution here... Setup stack, zero heap & call main()
1000  00 00 10              10  	LD	#*		Stack below here
1003  DE                    11  	TAS			Set up stack
1004  E0                    12  	CLR			Get zero
1005  A9 02 00              13  	STB	?heap		Zero heap
1008  D8 75 14              14  	CALL	main		Run main program
100B                        15  * Most embedded programs will never return or exit, however if they
100B                        16  * do, this section of code should do something appropriate, either
100B                        17  * restart the program, or stop the machine. For this system, we will
100B                        18  * simply freeze by entering an infinite loop.
100B  D3 FE                 19  exit	SJMP	*		Loop forever
100D                        20  *50000 22/5/2026
100D                        21  c_clrscr EQU *
100D  00 00 F8              22   LD #-2048
1010  DC                    23   PUSHA
1011  E0                    24   CLR
1012  DC                    25   PUSHA
1013  00 00 08              26   LD #2048
1016  DC                    27   PUSHA
1017  D8 B5 16              28   CALL memset
101A  DB 06                 29   FREE 6
101C  D9                    30   RET
101D                        31  c_scroll EQU *
101D  00 00 F8              32   LD #-2048
1020  DC                    33   PUSHA
1021  00 50 F8              34   LD #-1968
1024  DC                    35   PUSHA
1025  00 80 07              36   LD #1920
1028  DC                    37   PUSHA
1029  D8 C5 16              38   CALL memcpy
102C  DB 06                 39   FREE 6
102E  00 80 FF              40   LD #-128
1031  DC                    41   PUSHA
1032  08 20                 42   LDB #32
1034  DC                    43   PUSHA
1035  08 50                 44   LDB #80
1037  DC                    45   PUSHA
1038  D8 B5 16              46   CALL memset
103B  DB 06                 47   FREE 6
103D  D9                    48   RET
103E                        49  c_rewind EQU *
103E  90 FE FF              50   LDI #-2
1041  02                    51   LD I
1042  88 00                 52   CMPB #0
1044  D1 5F 10              53   JZ ?AB1
1047  90 FC FF              54   LDI #-4
104A  02                    55   LD I
104B  88 00                 56   CMPB #0
104D  D2 5C 10              57   JNZ ?AB2
1050  90 FC FF              58   LDI #-4
DUNFIELD CFLEA ASSEMBLER: GPIO                                         PAGE: 2

1053  02                    59   LD I
1054  E5                    60   DEC
1055  A2                    61   ST I
1056  90 FE FF              62   LDI #-2
1059  08 4F                 63   LDB #79
105B  A2                    64   ST I
105C                        65  ?AB2 EQU *
105C  D0 65 10              66   JMP ?AB3
105F                        67  ?AB1 EQU *
105F  90 FE FF              68   LDI #-2
1062  02                    69   LD I
1063  E5                    70   DEC
1064  A2                    71   ST I
1065                        72  ?AB3 EQU *
1065  D9                    73   RET
1066                        74  c_gotoxy EQU *
1066  90 FE FF              75   LDI #-2
1069  04 04                 76   LD 4,S
106B  A2                    77   ST I
106C  90 FC FF              78   LDI #-4
106F  04 02                 79   LD 2,S
1071  A2                    80   ST I
1072  D9                    81   RET
1073                        82  c_putc EQU *
1073  0C 02                 83   LDB 2,S
1075  88 0A                 84   CMPB #10
1077  D1 82 10              85   JZ ?AB4
107A  90 FE FF              86   LDI #-2
107D  E0                    87   CLR
107E  A2                    88   ST I
107F  D0 A7 10              89   JMP ?AB5
1082                        90  ?AB4 EQU *
1082  90 FC FF              91   LDI #-4
1085  02                    92   LD I
1086  38 50                 93   MULB #80
1088  90 FE FF              94   LDI #-2
108B  12                    95   ADD I
108C  90 00 F8              96   LDI #-2048
108F  E8                    97   ADAI
1090  0C 02                 98   LDB 2,S
1092  AA                    99   STB I
1093  90 FE FF             100   LDI #-2
1096  02                   101   LD I
1097  E4                   102   INC
1098  A2                   103   ST I
1099  90 FE FF             104   LDI #-2
109C  02                   105   LD I
109D  88 50                106   CMPB #80
109F  D1 BF 10             107   JZ ?AB6
10A2  90 FE FF             108   LDI #-2
10A5  E0                   109   CLR
10A6  A2                   110   ST I
10A7                       111  ?AB5 EQU *
10A7  90 FC FF             112   LDI #-4
10AA  02                   113   LD I
10AB  E4                   114   INC
10AC  A2                   115   ST I
10AD  90 FC FF             116   LDI #-4
DUNFIELD CFLEA ASSEMBLER: GPIO                                         PAGE: 3

10B0  02                   117   LD I
10B1  88 19                118   CMPB #25
10B3  D1 BF 10             119   JZ ?AB7
10B6  D8 1D 10             120   CALL c_scroll
10B9  90 FC FF             121   LDI #-4
10BC  08 18                122   LDB #24
10BE  A2                   123   ST I
10BF                       124  ?AB7 EQU *
10BF                       125  ?AB6 EQU *
10BF  D9                   126   RET
10C0                       127  c_puts EQU *
10C0                       128  ?AB8 EQU *
10C0  94 02                129   LDI 2,S
10C2  0A                   130   LDB I
10C3  D1 D6 10             131   JZ ?AB9
10C6  04 02                132   LD 2,S
10C8  E6                   133   TAI ;
10C9  E4                   134   INC
10CA  A4 02                135   ST 2,S
10CC  0A                   136   LDB I
10CD  DC                   137   PUSHA
10CE  D8 73 10             138   CALL c_putc
10D1  DB 02                139   FREE 2
10D3  D0 C0 10             140   JMP ?AB8
10D6                       141  ?AB9 EQU *
10D6  D9                   142   RET
10D7                       143  c_serin EQU *
10D7  EB 00                144  		IN $00
10D9  D9                   145   RET
10DA  DA 02                146  c_getc ALLOC 2
10DC                       147  ?AB10 EQU *
10DC  D8 D7 10             148   CALL c_serin
10DF  A4 00                149   ST 0,S
10E1                       150  ?AB11 EQU *
10E1  04 00                151   LD 0,S
10E3  80 FF FF             152   CMP #-1
10E6  D2 DC 10             153   JNZ ?AB10
10E9                       154  ?AB12 EQU *
10E9  04 00                155   LD 0,S
10EB                       156  ?AB13 EQU *
10EB  95                   157   LDI S+
10EC  D9                   158   RET
10ED  DA 06                159  c_gets ALLOC 6
10EF  04 0A                160   LD 10,S
10F1  A4 00                161   ST 0,S
10F3  04 0A                162   LD 10,S
10F5  14 08                163   ADD 8,S
10F7  28 01                164   SUBB #1
10F9  A4 02                165   ST 2,S
10FB                       166  ?AB14 EQU *
10FB  D8 DA 10             167   CALL c_getc
10FE  A4 04                168   ST 4,S
1100  88 08                169   CMPB #8
1102  D1 22 11             170   JZ ?AB16
1105  04 0A                171   LD 10,S
1107  84 00                172   CMP 0,S
1109  D2 1F 11             173   JNZ ?AB17
110C  04 0A                174   LD 10,S
DUNFIELD CFLEA ASSEMBLER: GPIO                                         PAGE: 4

110E  E5                   175   DEC
110F  A4 0A                176   ST 10,S
1111  D8 3E 10             177   CALL c_rewind
1114  08 20                178   LDB #32
1116  DC                   179   PUSHA
1117  D8 73 10             180   CALL c_putc
111A  DB 02                181   FREE 2
111C  D8 3E 10             182   CALL c_rewind
111F                       183  ?AB17 EQU *
111F  D0 4E 11             184   JMP ?AB18
1122                       185  ?AB16 EQU *
1122  04 04                186   LD 4,S
1124  88 0A                187   CMPB #10
1126  D5 04                188   SJNZ ?AB20
1128  04 04                189   LD 4,S
112A  88 0D                190   CMPB #13
112C                       191  ?AB20 EQU *
112C  D1 36 11             192   JZ ?AB19
112F  94 0A                193   LDI 10,S
1131  E0                   194   CLR
1132  AA                   195   STB I
1133  D0 51 11             196   JMP ?AB21
1136                       197  ?AB19 EQU *
1136  04 0A                198   LD 10,S
1138  84 02                199   CMP 2,S
113A  D2 4E 11             200   JNZ ?AB23
113D  04 0A                201   LD 10,S
113F  E6                   202   TAI ;
1140  E4                   203   INC
1141  A4 0A                204   ST 10,S
1143  04 04                205   LD 4,S
1145  AA                   206   STB I
1146  04 04                207   LD 4,S
1148  DC                   208   PUSHA
1149  D8 73 10             209   CALL c_putc
114C  DB 02                210   FREE 2
114E                       211  ?AB23 EQU *
114E                       212  ?AB22 EQU *
114E                       213  ?AB18 EQU *
114E  D0 FB 10             214   JMP ?AB14
1151                       215  ?AB15 EQU *
1151                       216  ?AB21 EQU *
1151  DB 06                217   FREE 6
1153  D9                   218   RET
1154  DA 04                219  c_box ALLOC 4
1156  90 FA FF             220   LDI #-6
1159  DD                   221   PUSHI
115A  90 FE FF             222   LDI #-2
115D  02                   223   LD I
115E  A6                   224   ST [S+]
115F  90 F8 FF             225   LDI #-8
1162  DD                   226   PUSHI
1163  90 FC FF             227   LDI #-4
1166  02                   228   LD I
1167  A6                   229   ST [S+]
1168  04 0C                230   LD 12,S
116A  A4 00                231   ST 0,S
116C                       232  ?AB24 EQU *
DUNFIELD CFLEA ASSEMBLER: GPIO                                         PAGE: 5

116C  04 00                233   LD 0,S
116E  84 08                234   CMP 8,S
1170  CC                   235   ULT
1171  D5 0A                236   SJNZ ?AB26
1173  D0 AB 11             237   JMP ?AB25
1176                       238  ?AB27 EQU *
1176  04 00                239   LD 0,S
1178  E4                   240   INC
1179  A4 00                241   ST 0,S
117B  D3 EF                242   SJMP ?AB24
117D                       243  ?AB26 EQU *
117D  04 0A                244   LD 10,S
117F  A4 02                245   ST 2,S
1181                       246  ?AB28 EQU *
1181  04 02                247   LD 2,S
1183  84 06                248   CMP 6,S
1185  CC                   249   ULT
1186  D5 0A                250   SJNZ ?AB30
1188  D0 A8 11             251   JMP ?AB29
118B                       252  ?AB31 EQU *
118B  04 02                253   LD 2,S
118D  E4                   254   INC
118E  A4 02                255   ST 2,S
1190  D3 EF                256   SJMP ?AB28
1192                       257  ?AB30 EQU *
1192  04 00                258   LD 0,S
1194  DC                   259   PUSHA
1195  04 04                260   LD 4,S
1197  DC                   261   PUSHA
1198  D8 66 10             262   CALL c_gotoxy
119B  DB 04                263   FREE 4
119D  08 20                264   LDB #32
119F  DC                   265   PUSHA
11A0  D8 73 10             266   CALL c_putc
11A3  DB 02                267   FREE 2
11A5  D0 8B 11             268   JMP ?AB31
11A8                       269  ?AB29 EQU *
11A8  D0 76 11             270   JMP ?AB27
11AB                       271  ?AB25 EQU *
11AB  04 0C                272   LD 12,S
11AD  DC                   273   PUSHA ;
11AE  04 0C                274   LD 12,S
11B0  DC                   275   PUSHA
11B1  D8 66 10             276   CALL c_gotoxy
11B4  DB 04                277   FREE 4
11B6  08 C9                278   LDB #201
11B8  DC                   279   PUSHA
11B9  D8 73 10             280   CALL c_putc
11BC  DB 02                281   FREE 2
11BE  04 0C                282   LD 12,S
11C0  DC                   283   PUSHA
11C1  04 08                284   LD 8,S
11C3  DC                   285   PUSHA
11C4  D8 66 10             286   CALL c_gotoxy
11C7  DB 04                287   FREE 4
11C9  08 C8                288   LDB #200
11CB  DC                   289   PUSHA
11CC  D8 73 10             290   CALL c_putc
DUNFIELD CFLEA ASSEMBLER: GPIO                                         PAGE: 6

11CF  DB 02                291   FREE 2
11D1  04 08                292   LD 8,S
11D3  DC                   293   PUSHA
11D4  04 0C                294   LD 12,S
11D6  DC                   295   PUSHA
11D7  D8 66 10             296   CALL c_gotoxy
11DA  DB 04                297   FREE 4
11DC  08 BB                298   LDB #187
11DE  DC                   299   PUSHA
11DF  D8 73 10             300   CALL c_putc
11E2  DB 02                301   FREE 2
11E4  04 08                302   LD 8,S
11E6  DC                   303   PUSHA ;
11E7  04 08                304   LD 8,S
11E9  DC                   305   PUSHA
11EA  D8 66 10             306   CALL c_gotoxy
11ED  DB 04                307   FREE 4
11EF  08 BC                308   LDB #188
11F1  DC                   309   PUSHA
11F2  D8 73 10             310   CALL c_putc
11F5  DB 02                311   FREE 2
11F7  04 0C                312   LD 12,S
11F9  18 01                313   ADDB #1
11FB  A4 00                314   ST 0,S
11FD                       315  ?AB32 EQU *
11FD  04 00                316   LD 0,S
11FF  84 08                317   CMP 8,S
1201  CC                   318   ULT
1202  D5 0A                319   SJNZ ?AB34
1204  D0 37 12             320   JMP ?AB33
1207                       321  ?AB35 EQU *
1207  04 00                322   LD 0,S
1209  E4                   323   INC
120A  A4 00                324   ST 0,S
120C  D3 EF                325   SJMP ?AB32
120E                       326  ?AB34 EQU *
120E  04 00                327   LD 0,S
1210  DC                   328   PUSHA
1211  04 0C                329   LD 12,S
1213  DC                   330   PUSHA
1214  D8 66 10             331   CALL c_gotoxy
1217  DB 04                332   FREE 4
1219  08 CD                333   LDB #205
121B  DC                   334   PUSHA
121C  D8 73 10             335   CALL c_putc
121F  DB 02                336   FREE 2
1221  04 00                337   LD 0,S
1223  DC                   338   PUSHA
1224  04 08                339   LD 8,S
1226  DC                   340   PUSHA
1227  D8 66 10             341   CALL c_gotoxy
122A  DB 04                342   FREE 4
122C  08 CD                343   LDB #205
122E  DC                   344   PUSHA
122F  D8 73 10             345   CALL c_putc
1232  DB 02                346   FREE 2
1234  D0 07 12             347   JMP ?AB35
1237                       348  ?AB33 EQU *
DUNFIELD CFLEA ASSEMBLER: GPIO                                         PAGE: 7

1237  04 0A                349   LD 10,S
1239  18 01                350   ADDB #1
123B  A4 02                351   ST 2,S
123D                       352  ?AB36 EQU *
123D  04 02                353   LD 2,S
123F  84 06                354   CMP 6,S
1241  CC                   355   ULT
1242  D5 0A                356   SJNZ ?AB38
1244  D0 77 12             357   JMP ?AB37
1247                       358  ?AB39 EQU *
1247  04 02                359   LD 2,S
1249  E4                   360   INC
124A  A4 02                361   ST 2,S
124C  D3 EF                362   SJMP ?AB36
124E                       363  ?AB38 EQU *
124E  04 0C                364   LD 12,S
1250  DC                   365   PUSHA
1251  04 04                366   LD 4,S
1253  DC                   367   PUSHA
1254  D8 66 10             368   CALL c_gotoxy
1257  DB 04                369   FREE 4
1259  08 BA                370   LDB #186
125B  DC                   371   PUSHA
125C  D8 73 10             372   CALL c_putc
125F  DB 02                373   FREE 2
1261  04 08                374   LD 8,S
1263  DC                   375   PUSHA
1264  04 04                376   LD 4,S
1266  DC                   377   PUSHA
1267  D8 66 10             378   CALL c_gotoxy
126A  DB 04                379   FREE 4
126C  08 BA                380   LDB #186
126E  DC                   381   PUSHA
126F  D8 73 10             382   CALL c_putc
1272  DB 02                383   FREE 2
1274  D0 47 12             384   JMP ?AB39
1277                       385  ?AB37 EQU *
1277  90 FE FF             386   LDI #-2
127A  DD                   387   PUSHI
127B  90 FA FF             388   LDI #-6
127E  02                   389   LD I
127F  A6                   390   ST [S+]
1280  90 FC FF             391   LDI #-4
1283  DD                   392   PUSHI
1284  90 F8 FF             393   LDI #-8
1287  02                   394   LD I
1288  A6                   395   ST [S+]
1289  DB 04                396   FREE 4
128B  D9                   397   RET
128C  DA 02                398  c_boxmsg ALLOC 2
128E  04 04                399   LD 4,S
1290  DC                   400   PUSHA
1291  D8 DD 16             401   CALL strlen
1294  DB 02                402   FREE 2
1296  18 03                403   ADDB #3
1298  A4 00                404   ST 0,S
129A  04 08                405   LD 8,S
129C  DC                   406   PUSHA ;
DUNFIELD CFLEA ASSEMBLER: GPIO                                         PAGE: 8

129D  04 08                407   LD 8,S
129F  DC                   408   PUSHA
12A0  04 0C                409   LD 12,S
12A2  14 04                410   ADD 4,S
12A4  DC                   411   PUSHA
12A5  04 0C                412   LD 12,S
12A7  18 02                413   ADDB #2
12A9  DC                   414   PUSHA
12AA  D8 54 11             415   CALL c_box
12AD  DB 08                416   FREE 8
12AF  04 08                417   LD 8,S
12B1  18 02                418   ADDB #2
12B3  DC                   419   PUSHA
12B4  04 08                420   LD 8,S
12B6  18 01                421   ADDB #1
12B8  DC                   422   PUSHA
12B9  D8 66 10             423   CALL c_gotoxy
12BC  DB 04                424   FREE 4
12BE  04 04                425   LD 4,S
12C0  DC                   426   PUSHA
12C1  D8 C0 10             427   CALL c_puts
12C4  DB 02                428   FREE 2
12C6  90 FE FF             429   LDI #-2
12C9  DD                   430   PUSHI
12CA  90 FA FF             431   LDI #-6
12CD  02                   432   LD I
12CE  A6                   433   ST [S+]
12CF  90 FC FF             434   LDI #-4
12D2  DD                   435   PUSHI
12D3  90 F8 FF             436   LDI #-8
12D6  02                   437   LD I
12D7  A6                   438   ST [S+]
12D8  95                   439   LDI S+
12D9  D9                   440   RET
12DA  DA 02                441  c_boxquery ALLOC 2
12DC  04 08                442   LD 8,S
12DE  DC                   443   PUSHA
12DF  D8 DD 16             444   CALL strlen
12E2  DB 02                445   FREE 2
12E4  18 03                446   ADDB #3
12E6  14 04                447   ADD 4,S
12E8  A4 00                448   ST 0,S
12EA  04 0C                449   LD 12,S
12EC  DC                   450   PUSHA ;
12ED  04 0C                451   LD 12,S
12EF  DC                   452   PUSHA
12F0  04 10                453   LD 16,S
12F2  14 04                454   ADD 4,S
12F4  DC                   455   PUSHA
12F5  04 10                456   LD 16,S
12F7  18 02                457   ADDB #2
12F9  DC                   458   PUSHA
12FA  D8 54 11             459   CALL c_box
12FD  DB 08                460   FREE 8
12FF  04 0C                461   LD 12,S
1301  18 02                462   ADDB #2
1303  DC                   463   PUSHA
1304  04 0C                464   LD 12,S
DUNFIELD CFLEA ASSEMBLER: GPIO                                         PAGE: 9

1306  18 01                465   ADDB #1
1308  DC                   466   PUSHA
1309  D8 66 10             467   CALL c_gotoxy
130C  DB 04                468   FREE 4
130E  04 08                469   LD 8,S
1310  DC                   470   PUSHA
1311  D8 C0 10             471   CALL c_puts
1314  DB 02                472   FREE 2
1316  04 06                473   LD 6,S
1318  DC                   474   PUSHA ;
1319  04 06                475   LD 6,S
131B  DC                   476   PUSHA
131C  D8 ED 10             477   CALL c_gets
131F  DB 04                478   FREE 4
1321  90 FE FF             479   LDI #-2
1324  DD                   480   PUSHI
1325  90 FA FF             481   LDI #-6
1328  02                   482   LD I
1329  A6                   483   ST [S+]
132A  90 FC FF             484   LDI #-4
132D  DD                   485   PUSHI
132E  90 F8 FF             486   LDI #-8
1331  02                   487   LD I
1332  A6                   488   ST [S+]
1333  95                   489   LDI S+
1334  D9                   490   RET
1335                       491  wait_us EQU *
1335  EA 11                492  		OUT $11			 * clear timer
1337                       493  wait_us_top
1337  EB 11                494  		IN $11			 * read timer
1339  84 02                495  		CMP 2,S			 * compare to us
133B  CC                   496  		ULT				 * unsigned less than 
133C  D5 F9                497  		SJNZ wait_us_top * wait till us passes
133E  D9                   498   RET
133F                       499  wait_ms EQU *
133F                       500  ?AB40 EQU *
133F  04 02                501   LD 2,S
1341  E5                   502   DEC
1342  A4 02                503   ST 2,S
1344  E4                   504   INC
1345  D1 54 13             505   JZ ?AB41
1348  00 E8 03             506   LD #1000
134B  DC                   507   PUSHA
134C  D8 35 13             508   CALL wait_us
134F  DB 02                509   FREE 2
1351  D0 3F 13             510   JMP ?AB40
1354                       511  ?AB41 EQU *
1354  D9                   512   RET
1355                       513  delay_loops EQU *
1355  EA 11                514  		OUT $11					* clear 1us timer
1357  04 02                515  		LD 2,S					* load x
1359                       516  delay_loops_top EQU *
1359  E5                   517  		DEC
135A  D5 FD                518  		SJNZ delay_loops_top	* decrement and loop
135C  EB 11                519  		IN $11					* read 1us timer and return value
135E  D9                   520   RET
135F  DA 08                521  delay_calibrate ALLOC 8
1361  E0                   522   CLR
DUNFIELD CFLEA ASSEMBLER: GPIO                                         PAGE: 10

1362  A4 06                523   ST 6,S
1364  00 FF FF             524   LD #-1
1367  A4 04                525   ST 4,S
1369                       526  ?AB42 EQU *
1369  04 04                527   LD 4,S
136B  14 06                528   ADD 6,S
136D  B8 01                529   SHR #1
136F  A4 00                530   ST 0,S
1371  DC                   531   PUSHA
1372  D8 55 13             532   CALL delay_loops
1375  DB 02                533   FREE 2
1377  A4 02                534   ST 2,S
1379  80 E8 03             535   CMP #1000
137C  CE                   536   UGT
137D  D1 87 13             537   JZ ?AB45
1380  04 00                538   LD 0,S
1382  A4 04                539   ST 4,S
1384  D0 8B 13             540   JMP ?AB46
1387                       541  ?AB45 EQU *
1387  04 00                542   LD 0,S
1389  A4 06                543   ST 6,S
138B                       544  ?AB46 EQU *
138B                       545  ?AB43 EQU *
138B  04 04                546   LD 4,S
138D  84 06                547   CMP 6,S
138F  D1 69 13             548   JZ ?AB42
1392                       549  ?AB44 EQU *
1392  04 00                550   LD 0,S
1394                       551  ?AB47 EQU *
1394  DB 08                552   FREE 8
1396  D9                   553   RET
1397                       554  outport EQU *
1397  04 04                555   LD 4,S
1399  90 B9 13             556   LDI #?AB49
139C  D7                   557   SWITCH
139D                       558  ?AB50 EQU *
139D  04 02                559  				LD 2,S
139F  EA 01                560  				OUT $01
13A1  D0 CD 13             561   JMP ?AB48
13A4                       562  ?AB51 EQU *
13A4  04 02                563  				LD 2,S
13A6  EA 02                564  				OUT $02
13A8  D0 CD 13             565   JMP ?AB48
13AB                       566  ?AB52 EQU *
13AB  04 02                567  				LD 2,S
13AD  EA 03                568  				OUT $03
13AF  D0 CD 13             569   JMP ?AB48
13B2                       570  ?AB53 EQU *
13B2  04 02                571  				LD 2,S
13B4  EA 04                572  				OUT $04
13B6  D0 CD 13             573   JMP ?AB48
13B9                       574  ?AB49 EQU *
13B9  B2 13 03 00 AB 13 +  575   FDB ?AB53,3,?AB52,2,?AB51,1,?AB50,0,0,?AB48
13CD                       576  ?AB48 EQU *
13CD  D9                   577   RET
13CE                       578  inport EQU *
13CE  04 02                579   LD 2,S
13D0  90 EC 13             580   LDI #?AB55
DUNFIELD CFLEA ASSEMBLER: GPIO                                         PAGE: 11

13D3  D7                   581   SWITCH
13D4                       582  ?AB56 EQU *
13D4  EB 01                583  				IN $01
13D6  D9                   584  				RET
13D7  D0 00 14             585   JMP ?AB54
13DA                       586  ?AB57 EQU *
13DA  EB 02                587  				IN $02
13DC  D9                   588  				RET
13DD  D0 00 14             589   JMP ?AB54
13E0                       590  ?AB58 EQU *
13E0  EB 03                591  				IN $03
13E2  D9                   592  				RET
13E3  D0 00 14             593   JMP ?AB54
13E6                       594  ?AB59 EQU *
13E6  EB 04                595  				IN $04
13E8  D9                   596  				RET
13E9  D0 00 14             597   JMP ?AB54
13EC                       598  ?AB55 EQU *
13EC  E6 13 03 00 E0 13 +  599   FDB ?AB59,3,?AB58,2,?AB57,1,?AB56,0,0,?AB54
1400                       600  ?AB54 EQU *
1400  D9                   601   RET
1401  DA 02                602  remap ALLOC 2
1403  E0                   603   CLR
1404  A4 00                604   ST 0,S
1406  04 04                605   LD 4,S
1408  58 01                606   ANDB #1
140A  D1 13 14             607   JZ ?AB60
140D  04 00                608   LD 0,S
140F  68 10                609   ORB #16
1411  A4 00                610   ST 0,S
1413                       611  ?AB60 EQU *
1413  04 04                612   LD 4,S
1415  58 02                613   ANDB #2
1417  D1 20 14             614   JZ ?AB61
141A  04 00                615   LD 0,S
141C  68 01                616   ORB #1
141E  A4 00                617   ST 0,S
1420                       618  ?AB61 EQU *
1420  04 04                619   LD 4,S
1422  58 04                620   ANDB #4
1424  D1 2D 14             621   JZ ?AB62
1427  04 00                622   LD 0,S
1429  68 20                623   ORB #32
142B  A4 00                624   ST 0,S
142D                       625  ?AB62 EQU *
142D  04 04                626   LD 4,S
142F  58 08                627   ANDB #8
1431  D1 3A 14             628   JZ ?AB63
1434  04 00                629   LD 0,S
1436  68 02                630   ORB #2
1438  A4 00                631   ST 0,S
143A                       632  ?AB63 EQU *
143A  04 04                633   LD 4,S
143C  58 10                634   ANDB #16
143E  D1 47 14             635   JZ ?AB64
1441  04 00                636   LD 0,S
1443  68 40                637   ORB #64
1445  A4 00                638   ST 0,S
DUNFIELD CFLEA ASSEMBLER: GPIO                                         PAGE: 12

1447                       639  ?AB64 EQU *
1447  04 04                640   LD 4,S
1449  58 20                641   ANDB #32
144B  D1 54 14             642   JZ ?AB65
144E  04 00                643   LD 0,S
1450  68 04                644   ORB #4
1452  A4 00                645   ST 0,S
1454                       646  ?AB65 EQU *
1454  04 04                647   LD 4,S
1456  58 40                648   ANDB #64
1458  D1 61 14             649   JZ ?AB66
145B  04 00                650   LD 0,S
145D  68 80                651   ORB #128
145F  A4 00                652   ST 0,S
1461                       653  ?AB66 EQU *
1461  04 04                654   LD 4,S
1463  58 80                655   ANDB #128
1465  D1 6E 14             656   JZ ?AB67
1468  04 00                657   LD 0,S
146A  68 08                658   ORB #8
146C  A4 00                659   ST 0,S
146E                       660  ?AB67 EQU *
146E  04 00                661   LD 0,S
1470  E1                   662   COM
1471  58 FF                663   ANDB #255
1473                       664  ?AB68 EQU *
1473  95                   665   LDI S+
1474  D9                   666   RET
1475  DA 67                667  main ALLOC 103
1477  D8 0D 10             668   CALL c_clrscr
147A                       669  ?AB69 EQU *
147A  E0                   670   CLR
147B  A4 08                671   ST 8,S
147D                       672  ?AB71 EQU *
147D  04 08                673   LD 8,S
147F  80 00 01             674   CMP #256
1482  CC                   675   ULT
1483  D5 0A                676   SJNZ ?AB73
1485  D0 C3 14             677   JMP ?AB72
1488                       678  ?AB74 EQU *
1488  04 08                679   LD 8,S
148A  E4                   680   INC
148B  A4 08                681   ST 8,S
148D  D3 EE                682   SJMP ?AB71
148F                       683  ?AB73 EQU *
148F  E0                   684   CLR
1490  DC                   685   PUSHA
1491  04 0A                686   LD 10,S
1493  DC                   687   PUSHA
1494  D8 01 14             688   CALL remap
1497  DB 02                689   FREE 2
1499  DC                   690   PUSHA
149A  D8 97 13             691   CALL outport
149D  DB 04                692   FREE 4
149F  9C 17                693   LEAI 23,S
14A1  DD                   694   PUSHI
14A2  00 14 16             695   LD #?AB0+0
14A5  DC                   696   PUSHA
DUNFIELD CFLEA ASSEMBLER: GPIO                                         PAGE: 13

14A6  04 0C                697   LD 12,S
14A8  DC                   698   PUSHA
14A9  08 03                699   LDB #3
14AB  D8 93 16             700   CALL sprintf
14AE  DB 06                701   FREE 6
14B0  9C 17                702   LEAI 23,S
14B2  DD                   703   PUSHI
14B3  D8 C0 10             704   CALL c_puts
14B6  DB 02                705   FREE 2
14B8  08 FA                706   LDB #250
14BA  DC                   707   PUSHA
14BB  D8 3F 13             708   CALL wait_ms
14BE  DB 02                709   FREE 2
14C0  D0 88 14             710   JMP ?AB74
14C3                       711  ?AB72 EQU *
14C3  D0 7A 14             712   JMP ?AB69
14C6                       713  ?AB70 EQU *
14C6  E0                   714   CLR
14C7  A4 08                715   ST 8,S
14C9                       716  ?AB75 EQU *
14C9  04 08                717   LD 8,S
14CB  88 04                718   CMPB #4
14CD  CC                   719   ULT
14CE  D5 0A                720   SJNZ ?AB77
14D0  D0 EB 14             721   JMP ?AB76
14D3                       722  ?AB78 EQU *
14D3  04 08                723   LD 8,S
14D5  E4                   724   INC
14D6  A4 08                725   ST 8,S
14D8  D3 EF                726   SJMP ?AB75
14DA                       727  ?AB77 EQU *
14DA  04 08                728   LD 8,S
14DC  38 02                729   MULB #2
14DE  9C 00                730   LEAI 0,S
14E0  E8                   731   ADAI
14E1  04 08                732   LD 8,S
14E3  38 02                733   MULB #2
14E5  18 01                734   ADDB #1
14E7  A2                   735   ST I
14E8  D0 D3 14             736   JMP ?AB78
14EB                       737  ?AB76 EQU *
14EB  D8 0D 10             738   CALL c_clrscr
14EE  D8 5F 13             739   CALL delay_calibrate
14F1  A4 08                740   ST 8,S
14F3  9C 17                741   LEAI 23,S
14F5  DD                   742   PUSHI
14F6  00 1D 16             743   LD #?AB0+9
14F9  DC                   744   PUSHA
14FA  04 0C                745   LD 12,S
14FC  DC                   746   PUSHA
14FD  04 0E                747   LD 14,S
14FF  DC                   748   PUSHA
1500  D8 55 13             749   CALL delay_loops
1503  DB 02                750   FREE 2
1505  DC                   751   PUSHA
1506  08 04                752   LDB #4
1508  D8 93 16             753   CALL sprintf
150B  DB 08                754   FREE 8
DUNFIELD CFLEA ASSEMBLER: GPIO                                         PAGE: 14

150D  9C 17                755   LEAI 23,S
150F  DD                   756   PUSHI
1510  D8 C0 10             757   CALL c_puts
1513  DB 02                758   FREE 2
1515  08 0A                759   LDB #10
1517  DC                   760   PUSHA
1518  08 08                761   LDB #8
151A  DC                   762   PUSHA
151B  00 35 16             763   LD #?AB0+33
151E  DC                   764   PUSHA
151F  D8 8C 12             765   CALL c_boxmsg
1522  DB 06                766   FREE 6
1524  08 05                767   LDB #5
1526  DC                   768   PUSHA
1527  08 03                769   LDB #3
1529  DC                   770   PUSHA
152A  00 4B 16             771   LD #?AB0+55
152D  DC                   772   PUSHA
152E  9C 12                773   LEAI 18,S
1530  DD                   774   PUSHI
1531  08 0A                775   LDB #10
1533  DC                   776   PUSHA
1534  D8 DA 12             777   CALL c_boxquery
1537  DB 0A                778   FREE 10
1539  9C 17                779   LEAI 23,S
153B  DD                   780   PUSHI
153C  00 63 16             781   LD #?AB0+79
153F  DC                   782   PUSHA
1540  9C 10                783   LEAI 16,S
1542  DD                   784   PUSHI
1543  08 03                785   LDB #3
1545  D8 93 16             786   CALL sprintf
1548  DB 06                787   FREE 6
154A  08 0F                788   LDB #15
154C  DC                   789   PUSHA
154D  08 0F                790   LDB #15
154F  DC                   791   PUSHA
1550  9C 1B                792   LEAI 27,S
1552  DD                   793   PUSHI
1553  D8 8C 12             794   CALL c_boxmsg
1556  DB 06                795   FREE 6
1558  00 88 13             796   LD #5000
155B  DC                   797   PUSHA
155C  D8 3F 13             798   CALL wait_ms
155F  DB 02                799   FREE 2
1561  E0                   800   CLR
1562  DC                   801   PUSHA
1563  E0                   802   CLR
1564  DC                   803   PUSHA
1565  D8 66 10             804   CALL c_gotoxy
1568  DB 04                805   FREE 4
156A  E0                   806   CLR
156B  A4 0A                807   ST 10,S
156D  D8 0D 10             808   CALL c_clrscr
1570                       809  ?AB79 EQU *
1570  9C 17                810   LEAI 23,S
1572  DD                   811   PUSHI
1573  00 6E 16             812   LD #?AB0+90
DUNFIELD CFLEA ASSEMBLER: GPIO                                         PAGE: 15

1576  DC                   813   PUSHA
1577  9C 04                814   LEAI 4+0,S
1579  02                   815   LD I
157A  DC                   816   PUSHA
157B  9C 08                817   LEAI 6+2,S
157D  02                   818   LD I
157E  DC                   819   PUSHA
157F  9C 0C                820   LEAI 8+4,S
1581  02                   821   LD I
1582  DC                   822   PUSHA
1583  9C 10                823   LEAI 10+6,S
1585  02                   824   LD I
1586  DC                   825   PUSHA
1587  08 06                826   LDB #6
1589  D8 93 16             827   CALL sprintf
158C  DB 0C                828   FREE 12
158E  08 03                829   LDB #3
1590  DC                   830   PUSHA
1591  E0                   831   CLR
1592  DC                   832   PUSHA
1593  9C 1B                833   LEAI 27,S
1595  DD                   834   PUSHI
1596  D8 8C 12             835   CALL c_boxmsg
1599  DB 06                836   FREE 6
159B  9C 17                837   LEAI 23,S
159D  DD                   838   PUSHI
159E  00 88 16             839   LD #?AB0+116
15A1  DC                   840   PUSHA
15A2  04 0E                841   LD 14,S
15A4  E4                   842   INC
15A5  A4 0E                843   ST 14,S
15A7  DC                   844   PUSHA
15A8  08 03                845   LDB #3
15AA  D8 93 16             846   CALL sprintf
15AD  DB 06                847   FREE 6
15AF  08 28                848   LDB #40
15B1  DC                   849   PUSHA
15B2  08 05                850   LDB #5
15B4  DC                   851   PUSHA
15B5  9C 1B                852   LEAI 27,S
15B7  DD                   853   PUSHI
15B8  D8 8C 12             854   CALL c_boxmsg
15BB  DB 06                855   FREE 6
15BD  08 FA                856   LDB #250
15BF  DC                   857   PUSHA
15C0  D8 3F 13             858   CALL wait_ms
15C3  DB 02                859   FREE 2
15C5  E0                   860   CLR
15C6  A4 08                861   ST 8,S
15C8                       862  ?AB81 EQU *
15C8  04 08                863   LD 8,S
15CA  88 04                864   CMPB #4
15CC  CC                   865   ULT
15CD  D5 0A                866   SJNZ ?AB83
15CF  D0 0E 16             867   JMP ?AB82
15D2                       868  ?AB84 EQU *
15D2  04 08                869   LD 8,S
15D4  E4                   870   INC
DUNFIELD CFLEA ASSEMBLER: GPIO                                         PAGE: 16

15D5  A4 08                871   ST 8,S
15D7  D3 EF                872   SJMP ?AB81
15D9                       873  ?AB83 EQU *
15D9  04 08                874   LD 8,S
15DB  38 02                875   MULB #2
15DD  9C 00                876   LEAI 0,S
15DF  E8                   877   ADAI
15E0  DD                   878   PUSHI
15E1  04 0A                879   LD 10,S
15E3  38 02                880   MULB #2
15E5  9C 02                881   LEAI 2,S
15E7  E8                   882   ADAI
15E8  02                   883   LD I
15E9  C0 01                884   SHL #1
15EB  DC                   885   PUSHA
15EC  04 0C                886   LD 12,S
15EE  38 02                887   MULB #2
15F0  9C 04                888   LEAI 4,S
15F2  E8                   889   ADAI
15F3  02                   890   LD I
15F4  B8 07                891   SHR #7
15F6  65                   892   OR S+
15F7  58 FF                893   ANDB #255
15F9  A6                   894   ST [S+]
15FA  04 08                895   LD 8,S
15FC  DC                   896   PUSHA
15FD  04 0A                897   LD 10,S
15FF  38 02                898   MULB #2
1601  9C 02                899   LEAI 2,S
1603  E8                   900   ADAI
1604  02                   901   LD I
1605  DC                   902   PUSHA
1606  D8 97 13             903   CALL outport
1609  DB 04                904   FREE 4
160B  D0 D2 15             905   JMP ?AB84
160E                       906  ?AB82 EQU *
160E  D0 70 15             907   JMP ?AB79
1611                       908  ?AB80 EQU *
1611  DB 67                909   FREE 103
1613  D9                   910   RET
1614  78 20 3D 3D 20 25 +  911  ?AB0 FCB 120,32,61,61,32,37,117,10,0,108,111,111,112,115,32,112
1624  65 72 20 6D 73 20 +  912   FCB 101,114,32,109,115,32,61,61,32,37,117,32,40,37,117,41
1634  00 42 6F 78 20 74 +  913   FCB 0,66,111,120,32,116,101,120,116,32,103,111,101,115,32,104
1644  65 72 65 20 65 68 +  914   FCB 101,114,101,32,101,104,0,72,101,108,108,111,32,119,104,97
1654  74 27 73 20 79 6F +  915   FCB 116,39,115,32,121,111,117,114,32,110,97,109,101,58,0,72
1664  65 6C 6C 6F 20 27 +  916   FCB 101,108,108,111,32,39,37,115,39,0,118,97,108,115,58,32
1674  25 32 78 2C 20 25 +  917   FCB 37,50,120,44,32,37,50,120,44,32,37,50,120,44,32,37
1684  32 78 0A 00 4C 6F +  918   FCB 50,120,10,0,76,111,111,112,115,58,32,37,53,117,0
1693                       919  *
1693                       920  * Formatted print to a string: sprintf(string, format, args ...)
1693                       921  *
1693  38 02                922  sprintf	MULB	#2		Word entries
1695  9C 00                923  	LEAI	,S		Point to stack
1697  E8                   924  	ADAI			Point to argument
1698  02                   925  	LD	I		Get output pointer
1699  A1 00 00             926  	ST	?temp		Save for later
169C  E7                   927  	TIA			Point to it
169D  E5                   928  	DEC			Backup
DUNFIELD CFLEA ASSEMBLER: GPIO                                         PAGE: 17

169E  E5                   929  	DEC			Backup
169F  E6                   930  	TAI			Back to index
16A0  00 A9 16             931  	LD	#?AC1		Output functino
16A3  D8 EB 16             932  	CALL	format		Format it
16A6  E0                   933  	CLR			Get zero
16A7  D3 02                934  	SJMP	?AC2		And write it
16A9  04 02                935  ?AC1	LD	2,S		Get character
16AB  91 00 00             936  ?AC2	LDI	?temp		Get output pointer
16AE  AA                   937  	STB	I		Write to memory
16AF  9B 01                938  	LEAI	1,I		Advance
16B1  B1 00 00             939  	STI	?temp		Resave
16B4  D9                   940  	RET
16B5                       941  *50000 22/5/2026
16B5                       942  *
16B5                       943  * Set memory to a specified value: memset(block, value, size)
16B5                       944  *
16B5  94 06                945  memset	LDI	6,S		Get pointer
16B7  04 02                946  ?AD1	LD	2,S		Get size
16B9  D4 21                947  	SJZ	?AD2		Zero, exit
16BB  E5                   948  	DEC			Backup
16BC  A4 02                949  	ST	2,S		Resave
16BE  04 04                950  	LD	4,S		Get value
16C0  AA                   951  	STB	I		Write to memory
16C1  9B 01                952  	LEAI	1,I		Advance
16C3  D3 F2                953  	SJMP	?AD1		And proceed
16C5                       954  *
16C5                       955  * Copy memory: memcpy(dest, source, size)
16C5                       956  *
16C5  04 02                957  memcpy	LD	2,S		Get size
16C7  D4 13                958  	SJZ	?AD2		Zero, exit
16C9  E5                   959  	DEC			Reduce count
16CA  A4 02                960  	ST	2,S		Resave
16CC  94 04                961  	LDI	4,S		Get source
16CE  0A                   962  	LDB	I		Get byte
16CF  9B 01                963  	LEAI	1,I		Advance
16D1  B4 04                964  	STI	4,S		Resave
16D3  94 06                965  	LDI	6,S		Get dest
16D5  AA                   966  	STB	I		Write byte
16D6  9B 01                967  	LEAI	1,I		Advance
16D8  B4 06                968  	STI	6,S		Resave
16DA  D3 E9                969  	SJMP	memcpy		And proceed
16DC  D9                   970  ?AD2	RET
16DD                       971  *50000 22/5/2026
16DD                       972  *
16DD                       973  * Determine length of string: strlen(string)
16DD                       974  *
16DD  94 02                975  strlen	LDI	2,S		; Get string ptr
16DF  0A                   976  ?AE1	LDB	I		; Get byte from string
16E0  D1 E7 16             977  	JZ	?AE2		; We are at end
16E3  9B 01                978  	LEAI	1,I		; Skip to next
16E5  D3 F8                979  	SJMP	?AE1		; And proceed
16E7  E7                   980  ?AE2	TIA			; Get pointer
16E8  24 02                981  	SUB	2,S		; Compute actual length
16EA  D9                   982  	RET
16EB                       983  *50000 22/5/2026
16EB                       984  *
16EB                       985  * Format to "printf" output: A=Output Function, I = Argument List
16EB                       986  *
DUNFIELD CFLEA ASSEMBLER: GPIO                                         PAGE: 18

16EB  DC                   987  format	PUSHA			Save output function pointer
16EC  DD                   988  	PUSHI			Save argument pointer
16ED  DA 0A                989  	ALLOC	10		Save  flag variable
16EF                       990  * Local variable & argument offsets
000C                       991  ?AF1	EQU	12		Pointer to output function
000A                       992  ?AF2	EQU	10		Pointer to argument list
0004                       993  ?AF3	EQU	4		Buffer for number conversions (6 bytes)
0002                       994  ?AF4	EQU	2		Temporary locations
0001                       995  ?AF5	EQU	1		Character count
0000                       996  ?AF6	EQU	0		Formatting controls
16EF                       997  *
16EF  94 0A                998  	LDI	?AF2,S		Get arg pointer
16F1  92                   999  	LDI	I		Get format string
16F2  0A                  1000  ?AF7	LDB	I		Get character from string
16F3  D4 12               1001  	SJZ	?AF8		Exit if end
16F5  88 25               1002  	CMPB	#'%'		Format character
16F7  D5 12               1003  	SJNZ	?AF10		Yes, handle it
16F9  0A                  1004  	LDB	I		Get char back
16FA  9B 01               1005  	LEAI	1,I		Advance pointer
16FC  DD                  1006  	PUSHI			Save Index
16FD  DC                  1007  	PUSHA			Pass character
16FE  04 10               1008  	LD	4+?AF1,S		Get output function
1700  D8 0A 17            1009  	CALL	?AF9		Output the character
1703  05                  1010  	LD	S+		Clean stack
1704  95                  1011  	LDI	S+		Get Index back
1705  D3 EB               1012  	SJMP	?AF7		And proceed
1707  DB 0E               1013  ?AF8	FREE	14		Release stack
1709  D9                  1014  	RET
170A                      1015  * Call output function in A
170A  D6                  1016  ?AF9	IJMP			Call function
170B                      1017  * Format character located
170B  9B 01               1018  ?AF10	LEAI	1,I		Skip to next
170D  E0                  1019  	CLR			Begin with zero
170E  A4 02               1020  	ST	?AF4,S		Save for later
1710                      1021  * Check for leading '-' = Left justify
1710  AC 00               1022  	STB	?AF6,S		Init. flag
1712  AC 01               1023  	STB	?AF5,S		Init. count
1714  0A                  1024  	LDB	I		Get char
1715  88 2D               1025  	CMPB	#'-'		Minus?
1717  D4 06               1026  	SJZ	?AF11		No, try next
1719  9B 01               1027  	LEAI	1,I		Advance pointer
171B  08 80               1028  	LDB	#%10000000	Set justify flag
171D  AC 00               1029  	STB	?AF6,S		Resave
171F                      1030  * Check for leading '0' = Zero fill
171F  0A                  1031  ?AF11	LDB	I		Get char back
1720  88 30               1032  	CMPB	#'0'		Zero fill?
1722  D4 08               1033  	SJZ	?AF12		No, try next
1724  9B 01               1034  	LEAI	1,I		Advance
1726  0C 00               1035  	LDB	?AF6,S		Get value
1728  68 40               1036  	ORB	#%01000000	Set zero fill flag
172A  AC 00               1037  	STB	?AF6,S		Resave
172C                      1038  * Get field width
172C  0A                  1039  ?AF12	LDB	I		Get character
172D  28 30               1040  	SUBB	#'0'		Convert to binary
172F  DC                  1041  	PUSHA			Save
1730  88 0A               1042  	CMPB	#10		In range?
1732  CC                  1043  	ULT			Must be less than
1733  D4 0B               1044  	SJZ	?AF13		Nope
DUNFIELD CFLEA ASSEMBLER: GPIO                                         PAGE: 19

1735  9B 01               1045  	LEAI	1,I		Skip digit
1737  04 04               1046  	LD	2+?AF4,S		Get old value
1739  38 0A               1047  	MULB	#10		x10
173B  15                  1048  	ADD	S+		Include new
173C  A4 02               1049  	ST	?AF4,S		Resave
173E  D3 EC               1050  	SJMP	?AF12		Do them all
1740  05                  1051  ?AF13	LD	S+		Clear stack
1741  04 02               1052  	LD	?AF4,S		Get value
1743  6C 00               1053  	ORB	?AF6,S		Include previous flags
1745  AC 00               1054  	STB	?AF6,S		Resave
1747                      1055  * Lookup character & dispatch handler
1747  DD                  1056  	PUSHI			Save format pointer
1748  04 0C               1057  	LD	2+?AF2,S		Get argptr
174A  E5                  1058  	DEC			Backup
174B  E5                  1059  	DEC			Backup
174C  A4 0C               1060  	ST	2+?AF2,S		Resave
174E  E6                  1061  	TAI			Address
174F  02                  1062  	LD	I		Get value
1750  A4 04               1063  	ST	2+?AF4,S		Resave
1752  0F                  1064  	LDB	[S]		Get next character
1753  99 57 17            1065  	LEAI	?AF14		Point to table
1756  D7                  1066  	SWITCH			Lookup & execute
1757  73 17 6F 00         1067  ?AF14	FDB	?AF15,'o'		Octal number
175B  77 17 64 00         1068  	FDB	?AF16,'d'		Decimal number
175F  97 17 75 00         1069  	FDB	?AF17,'u'		Unsigned number
1763  9B 17 78 00         1070  	FDB	?AF18,'x'		Hexidecimal number
1767  F1 17 63 00         1071  	FDB	?AF26,'c'		Character output
176B  FC 17 73 00         1072  	FDB	?AF28,'s'		String output
176F  00 00 F3 17         1073  	FDB	0,?AF27		Ignore it
1773                      1074  * '%o' - Octal number
1773  08 08               1075  ?AF15	LDB	#8		Base 8
1775  D3 26               1076  	SJMP	?AF19		Do number
1777                      1077  * '%d' - signed Decimal number
1777  04 04               1078  ?AF16	LD	2+?AF4,S		Get value
1779  50 00 80            1079  	AND	#$8000		Negatve?
177C  D4 19               1080  	SJZ	?AF17		Nothing special
177E  08 2D               1081  	LDB	#'-'		Minus size
1780  DC                  1082  	PUSHA			Pass to function
1781  04 10               1083  	LD	4+?AF1,S		Get output function
1783  D8 0A 17            1084  	CALL	?AF9		Call function
1786  05                  1085  	LD	S+		Clean stack
1787  04 04               1086  	LD	2+?AF4,S		Get value
1789  E2                  1087  	NEG			Negate
178A  A4 04               1088  	ST	2+?AF4,S		And prcoeed
178C  0C 02               1089  	LDB	2+?AF6,S		Get length
178E  58 7F               1090  	ANDB	#%001111111	Free format?
1790  D4 05               1091  	SJZ	?AF17		Yes, ignore
1792  0C 02               1092  	LDB	2+?AF6,S		Get value back
1794  E5                  1093  	DEC			Adjust for '-'
1795  AC 02               1094  	STB	2+?AF6,S		Resave
1797                      1095  * '%u' - Unsigned decimal number
1797  08 0A               1096  ?AF17	LDB	#10		Base 10 output
1799  D3 02               1097  	SJMP	?AF19		Do number
179B                      1098  * '%x' - heXidecimal number
179B  08 10               1099  ?AF18	LDB	#16		Base 16 output
179D                      1100  * Output a number in the specified number base
179D  AC 06               1101  ?AF19	STB	2+?AF3,S		Save number base
179F  9C 0C               1102  	LEAI	6+2+?AF3,S	Point to END of buffer
DUNFIELD CFLEA ASSEMBLER: GPIO                                         PAGE: 20

17A1  E7                  1103  ?AF20	TIA			Get index
17A2  E5                  1104  	DEC			Backup
17A3  E6                  1105  	TAI			Set index
17A4  0C 03               1106  	LDB	2+?AF5,S		Get count
17A6  E4                  1107  	INC			Advance
17A7  AC 03               1108  	STB	2+?AF5,S		Resave
17A9  04 04               1109  	LD	2+?AF4,S		Get value
17AB  4C 06               1110  	DIVB	2+?AF3,S		Divide by 10
17AD  DC                  1111  	PUSHA			Save quotient
17AE  E9                  1112  	ALT			Get remainder
17AF  18 30               1113  	ADDB	#'0'		Convert to ASCII
17B1  AA                  1114  	STB	I		Write to stack
17B2  88 39               1115  	CMPB	#'9'		Is it HEX?
17B4  CE                  1116  	UGT			Complete test
17B5  D4 04               1117  	SJZ	?AF21		Yes it is
17B7  0A                  1118  	LDB	I		Get char back
17B8  18 07               1119  	ADDB	#7		Adjust
17BA  AA                  1120  	STB	I		Resave char
17BB  05                  1121  ?AF21	LD	S+		Get quotient
17BC  A4 04               1122  	ST	2+?AF4,S		Save new value
17BE  D5 E1               1123  	SJNZ	?AF20		Do them all
17C0                      1124  * At this point, I = pointer, ?5=Length
17C0  0C 03               1125  ?AF22	LDB	2+?AF5,S		Get count
17C2  AC 05               1126  	STB	3+?AF4,S		Set extra count
17C4  0C 02               1127  	LDB	2+?AF6,S		Get flag
17C6  58 80               1128  	ANDB	#%10000000	Left justify?
17C8  D5 03               1129  	SJNZ	?AF23		Yes, don't fill
17CA  D8 0E 18            1130  	CALL	?AF31		Do any pre-output
17CD  0C 05               1131  ?AF23	LDB	3+?AF4,S		Get count
17CF  D4 11               1132  	SJZ	?AF24		All done, exit
17D1  E5                  1133  	DEC			Reduce count
17D2  AC 05               1134  	STB	3+?AF4,S		Resave
17D4  0A                  1135  	LDB	I		Get character from string
17D5  9B 01               1136  	LEAI	1,I		Advance
17D7  DD                  1137  	PUSHI			Save it
17D8  DC                  1138  	PUSHA			Pass character
17D9  04 12               1139  	LD	6+?AF1,S		Get output function
17DB  D8 0A 17            1140  	CALL	?AF9		Output character
17DE  05                  1141  	LD	S+		Clean stack
17DF  95                  1142  	LDI	S+		Restore I
17E0  D3 EB               1143  	SJMP	?AF23		Go again
17E2  0C 02               1144  ?AF24	LDB	2+?AF6,S		Get flag
17E4  58 80               1145  	ANDB	#%10000000	Left justify
17E6  D4 03               1146  	SJZ	?AF25		No, skip it
17E8  D8 0E 18            1147  	CALL	?AF31		Post justify
17EB  95                  1148  ?AF25	LDI	S+		Restore format string
17EC  9B 01               1149  	LEAI	1,I		Advance pointer
17EE  D0 F2 16            1150  	JMP	?AF7		And proceed
17F1                      1151  * '%c' - output character
17F1  0C 04               1152  ?AF26	LDB	2+?AF4,S		Get character
17F3  9C 06               1153  ?AF27	LEAI	2+?AF3,S		Point to buffer
17F5  AA                  1154  	STB	I		Save it
17F6  08 01               1155  	LDB	#1		Get 1
17F8  AC 03               1156  	STB	2+?AF5,S
17FA  D3 C4               1157  	SJMP	?AF22
17FC                      1158  * '%s' - output string
17FC  94 04               1159  ?AF28	LDI	2+?AF4,S		Get string pointer
17FE  0A                  1160  ?AF29	LDB	I		Get character
DUNFIELD CFLEA ASSEMBLER: GPIO                                         PAGE: 21

17FF  D4 09               1161  	SJZ	?AF30		End of string
1801  9B 01               1162  	LEAI	1,I		Skip to next
1803  0C 03               1163  	LDB	2+?AF5,S		Get count
1805  E4                  1164  	INC			Advance
1806  AC 03               1165  	STB	2+?AF5,S		Resave count
1808  D3 F4               1166  	SJMP	?AF29		And proceed
180A  94 04               1167  ?AF30	LDI	2+?AF4,S		Get pointer back
180C  D3 B2               1168  	SJMP	?AF22		And output
180E                      1169  * Perform pre-output justify
180E  0C 04               1170  ?AF31	LDB	4+?AF6,S		Get flag
1810  58 3F               1171  	ANDB	#%00111111	Save length only
1812  D4 23               1172  	SJZ	?AF35		No justify
1814  AC 06               1173  	STB	4+?AF4,S		Save for later
1816  DD                  1174  	PUSHI			Save index
1817  0C 07               1175  ?AF32	LDB	6+?AF5,S		Get count
1819  8C 08               1176  	CMPB	6+?AF4,S		Are we over
181B  CF                  1177  	UGE			Complete test
181C  D5 18               1178  	SJNZ	?AF34		Yes, exit
181E  0C 06               1179  	LDB	6+?AF6,S		Get flag
1820  58 40               1180  	ANDB	#%01000000	Zero fill?
1822  D4 02               1181  	SJZ	?AF33		No, use ' '
1824  08 10               1182  	LDB	#'0'-' '	Get value
1826  18 20               1183  ?AF33	ADDB	#' '		Convert to char
1828  DC                  1184  	PUSHA			Pass character
1829  04 14               1185  	LD	8+?AF1,S		Get output function
182B  D8 0A 17            1186  	CALL	?AF9		Output character
182E  05                  1187  	LD	S+		Clean stack
182F  0C 08               1188  	LDB	6+?AF4,S		Get remaining width
1831  E5                  1189  	DEC			Reduce
1832  AC 08               1190  	STB	6+?AF4,S		Resave
1834  D3 E1               1191  	SJMP	?AF32		Do next
1836  95                  1192  ?AF34	LDI	S+		Restore index
1837  D9                  1193  ?AF35	RET
1838                      1194  *50000 22/5/2026
1838                      1195  *
1838                      1196  * DDS MICRO-C C-FLEA Runtime Library - Middle file
1838                      1197  *
1838                      1198  * Copyright 1991-2005 Dave Dunfield
1838                      1199  * All rights reserved.
1838                      1200  *
0000                      1201  	ORG	$0000		Start RAM based variables here
0000                      1202  ?temp	RMB	2		Temporary location used by compiler
0002                      1203  *50000 22/5/2026
0002                      1204  *
0002                      1205  * DDS MICRO-C C-FLEA Runtime Library - Suffix file
0002                      1206  *
0002                      1207  * Copyright 1991-2005 Dave Dunfield
0002                      1208  * All rights reserved.
0002                      1209  *
0002                      1210  ?heap	EQU	*		Beginning of unused RAM
0002                      1211  *50000 22/5/2026
DUNFIELD CFLEA ASSEMBLER: GPIO                                         PAGE: 22

SYMBOL TABLE:

?AB0    -1614   ?AB1    -105F   ?AB10   -10DC   ?AB11   -10E1   ?AB12   -10E9
?AB13   -10EB   ?AB14   -10FB   ?AB15   -1151   ?AB16   -1122   ?AB17   -111F
?AB18   -114E   ?AB19   -1136   ?AB2    -105C   ?AB20   -112C   ?AB21   -1151
?AB22   -114E   ?AB23   -114E   ?AB24   -116C   ?AB25   -11AB   ?AB26   -117D
?AB27   -1176   ?AB28   -1181   ?AB29   -11A8   ?AB3    -1065   ?AB30   -1192
?AB31   -118B   ?AB32   -11FD   ?AB33   -1237   ?AB34   -120E   ?AB35   -1207
?AB36   -123D   ?AB37   -1277   ?AB38   -124E   ?AB39   -1247   ?AB4    -1082
?AB40   -133F   ?AB41   -1354   ?AB42   -1369   ?AB43   -138B   ?AB44   -1392
?AB45   -1387   ?AB46   -138B   ?AB47   -1394   ?AB48   -13CD   ?AB49   -13B9
?AB5    -10A7   ?AB50   -139D   ?AB51   -13A4   ?AB52   -13AB   ?AB53   -13B2
?AB54   -1400   ?AB55   -13EC   ?AB56   -13D4   ?AB57   -13DA   ?AB58   -13E0
?AB59   -13E6   ?AB6    -10BF   ?AB60   -1413   ?AB61   -1420   ?AB62   -142D
?AB63   -143A   ?AB64   -1447   ?AB65   -1454   ?AB66   -1461   ?AB67   -146E
?AB68   -1473   ?AB69   -147A   ?AB7    -10BF   ?AB70   -14C6   ?AB71   -147D
?AB72   -14C3   ?AB73   -148F   ?AB74   -1488   ?AB75   -14C9   ?AB76   -14EB
?AB77   -14DA   ?AB78   -14D3   ?AB79   -1570   ?AB8    -10C0   ?AB80   -1611
?AB81   -15C8   ?AB82   -160E   ?AB83   -15D9   ?AB84   -15D2   ?AB9    -10D6
?AC1    -16A9   ?AC2    -16AB   ?AD1    -16B7   ?AD2    -16DC   ?AE1    -16DF
?AE2    -16E7   ?AF1    -000C   ?AF10   -170B   ?AF11   -171F   ?AF12   -172C
?AF13   -1740   ?AF14   -1757   ?AF15   -1773   ?AF16   -1777   ?AF17   -1797
?AF18   -179B   ?AF19   -179D   ?AF2    -000A   ?AF20   -17A1   ?AF21   -17BB
?AF22   -17C0   ?AF23   -17CD   ?AF24   -17E2   ?AF25   -17EB   ?AF26   -17F1
?AF27   -17F3   ?AF28   -17FC   ?AF29   -17FE   ?AF3    -0004   ?AF30   -180A
?AF31   -180E   ?AF32   -1817   ?AF33   -1826   ?AF34   -1836   ?AF35   -1837
?AF4    -0002   ?AF5    -0001   ?AF6    -0000   ?AF7    -16F2   ?AF8    -1707
?AF9    -170A   ?heap   -0002   ?temp   -0000   c_box   -1154   c_boxmsg-128C
c_boxquery              -12DA   c_clrscr-100D   c_getc  -10DA   c_gets  -10ED
c_gotoxy-1066   c_putc  -1073   c_puts  -10C0   c_rewind-103E   c_scroll-101D
c_serin -10D7   delay_calibrate         -135F   delay_loops             -1355
delay_loops_top         -1359   exit    -100B   format  -16EB   inport  -13CE
main    -1475   memcpy  -16C5   memset  -16B5   outport -1397   remap   -1401
sprintf -1693   strlen  -16DD   wait_ms -133F   wait_us -1335   wait_us_top             -1337
